

Microchip MPLAB XC8 Assembler V2.41 build 20230208172133 
                                                                                               Mon Dec 04 11:35:59 2023

Microchip MPLAB XC8 C Compiler v2.41 (Free license) build 20230208172133 Og1 
     1                           	processor	18F4620
     2                           	fnconf	rparam,??,?,0
     3                           	pagewidth 120
     4                           	opt	flic
     5                           	psect	idataCOMRAM,global,class=CODE,delta=1,noexec
     6                           	psect	idataBANK0,global,class=CODE,delta=1,noexec
     7                           	psect	idataBANK1,global,class=CODE,delta=1,noexec
     8                           	psect	smallconst,global,reloc=2,class=SMALLCONST,delta=1,noexec
     9                           	psect	cinit,global,reloc=2,class=CODE,delta=1
    10                           	psect	bssCOMRAM,global,class=COMRAM,space=1,delta=1,lowdata,noexec
    11                           	psect	dataCOMRAM,global,class=COMRAM,space=1,delta=1,lowdata,noexec
    12                           	psect	bssBANK0,global,class=BANK0,space=1,delta=1,lowdata,noexec
    13                           	psect	dataBANK0,global,class=BANK0,space=1,delta=1,lowdata,noexec
    14                           	psect	dataBANK1,global,class=BANK1,space=1,delta=1,lowdata,noexec
    15                           	psect	cstackBANK1,global,class=BANK1,space=1,delta=1,lowdata,noexec
    16                           	psect	cstackBANK0,global,class=BANK0,space=1,delta=1,lowdata,noexec
    17                           	psect	cstackCOMRAM,global,class=COMRAM,space=1,delta=1,lowdata,noexec
    18                           	psect	text0,global,reloc=2,class=CODE,delta=1
    19                           	psect	text1,global,reloc=2,class=CODE,delta=1
    20                           	psect	text2,global,reloc=2,class=CODE,delta=1
    21                           	psect	text3,global,reloc=2,class=CODE,delta=1
    22                           	psect	text4,global,reloc=2,class=CODE,delta=1
    23                           	psect	text5,global,reloc=2,class=CODE,delta=1
    24                           	psect	text6,global,reloc=2,class=CODE,delta=1
    25                           	psect	text7,global,reloc=2,class=CODE,delta=1
    26                           	psect	text8,global,reloc=2,class=CODE,delta=1,group=1
    27                           	psect	text9,global,reloc=2,class=CODE,delta=1,group=1
    28                           	psect	text10,global,reloc=2,class=CODE,delta=1,group=1
    29                           	psect	text11,global,reloc=2,class=CODE,delta=1,group=1
    30                           	psect	text12,global,reloc=2,class=CODE,delta=1,group=1
    31                           	psect	intcode,global,reloc=2,class=CODE,delta=1
    32                           	psect	intcode_body,global,reloc=2,class=CODE,delta=1
    33                           	psect	text14,global,reloc=2,class=CODE,delta=1
    34                           	psect	text15,global,reloc=2,class=CODE,delta=1
    35                           	psect	text16,global,reloc=2,class=CODE,delta=1
    36                           	psect	text17,global,reloc=2,class=CODE,delta=1
    37                           	psect	text18,global,reloc=2,class=CODE,delta=1
    38                           	psect	text19,global,reloc=2,class=CODE,delta=1
    39                           	psect	text20,global,reloc=2,class=CODE,delta=1
    40                           	psect	text21,global,reloc=2,class=CODE,delta=1
    41                           	psect	text22,global,reloc=2,class=CODE,delta=1
    42                           	psect	text23,global,reloc=2,class=CODE,delta=1
    43                           	psect	text24,global,reloc=2,class=CODE,delta=1
    44                           	psect	text25,global,reloc=2,class=CODE,delta=1
    45                           	psect	text26,global,reloc=2,class=CODE,delta=1
    46                           	psect	text27,global,reloc=2,class=CODE,delta=1
    47                           	psect	intsave_regs,global,class=BIGRAM,space=1,delta=1,noexec
    48                           	psect	rparam,global,class=COMRAM,space=1,delta=1,noexec
    49                           	psect	temp,global,ovrld,common,class=COMRAM,space=1,delta=1
    50                           	psect	config,global,abs,ovrld,class=CONFIG,space=4,delta=1,noexec
    51   000000                     
    52                           ; Generated 23/03/2023 GMT
    53                           ; 
    54                           ; Copyright © 2023, Microchip Technology Inc. and its subsidiaries ("Microchip")
    55                           ; All rights reserved.
    56                           ; 
    57                           ; This software is developed by Microchip Technology Inc. and its subsidiaries ("Microch
      +                          ip").
    58                           ; 
    59                           ; Redistribution and use in source and binary forms, with or without modification, are
    60                           ; permitted provided that the following conditions are met:
    61                           ; 
    62                           ;     1. Redistributions of source code must retain the above copyright notice, this lis
      +                          t of
    63                           ;        conditions and the following disclaimer.
    64                           ; 
    65                           ;     2. Redistributions in binary form must reproduce the above copyright notice, this 
      +                          list
    66                           ;        of conditions and the following disclaimer in the documentation and/or other
    67                           ;        materials provided with the distribution. Publication is not required when
    68                           ;        this file is used in an embedded application.
    69                           ; 
    70                           ;     3. Microchip's name may not be used to endorse or promote products derived from th
      +                          is
    71                           ;        software without specific prior written permission.
    72                           ; 
    73                           ; THIS SOFTWARE IS PROVIDED BY MICROCHIP "AS IS" AND ANY EXPRESS OR IMPLIED WARRANTIES,
    74                           ; INCLUDING, BUT NOT LIMITED TO, THE IMPLIED WARRANTIES OF MERCHANTABILITY AND FITNESS F
      +                          OR
    75                           ; PURPOSE ARE DISCLAIMED.  IN NO EVENT SHALL MICROCHIP BE LIABLE FOR ANY DIRECT, INDIREC
      +                          T,
    76                           ; INCIDENTAL, SPECIAL, EXEMPLARY, OR CONSEQUENTIAL DAMAGES (INCLUDING BUT NOT LIMITED TO
    77                           ; PROCUREMENT OF SUBSTITUTE GOODS OR SERVICES; LOSS OF USE, DATA OR PROFITS; OR BUSINESS
    78                           ; INTERRUPTION) HOWSOEVER CAUSED AND ON ANY THEORY OF LIABILITY, WHETHER IN CONTRACT, ST
      +                          RICT
    79                           ; LIABILITY, OR TORT (INCLUDING NEGLIGENCE OR OTHERWISE) ARISING IN ANY WAY OUT OF THE U
      +                          SE OF
    80                           ; THIS SOFTWARE, EVEN IF ADVISED OF THE POSSIBILITY OF SUCH DAMAGE.
    81                           ; 
    82                           ; 
    83                           ; Code-generator required, PIC18F4620 Definitions
    84                           ; 
    85                           ; SFR Addresses
    86   000000                     
    87                           	psect	idataCOMRAM
    88   002E34                     __pidataCOMRAM:
    89                           	callstack 0
    90                           
    91                           ;initializer for _RB7_Flag
    92   002E34  01                 	db	1
    93                           
    94                           ;initializer for _RB6_Flag
    95   002E35  01                 	db	1
    96                           
    97                           ;initializer for _RB5_Flag
    98   002E36  01                 	db	1
    99                           
   100                           ;initializer for _RB4_Flag
   101   002E37  01                 	db	1
   102                           
   103                           	psect	idataBANK0
   104   002D78                     __pidataBANK0:
   105                           	callstack 0
   106                           
   107                           ;initializer for _port_registers
   108   002D78  80                 	db	128
   109   002D79  0F                 	db	15
   110   002D7A  81                 	db	129
   111   002D7B  0F                 	db	15
   112   002D7C  82                 	db	130
   113   002D7D  0F                 	db	15
   114   002D7E  83                 	db	131
   115   002D7F  0F                 	db	15
   116   002D80  84                 	db	132
   117   002D81  0F                 	db	15
   118                           
   119                           ;initializer for _lat_registers
   120   002D82  89                 	db	137
   121   002D83  0F                 	db	15
   122   002D84  8A                 	db	138
   123   002D85  0F                 	db	15
   124   002D86  8B                 	db	139
   125   002D87  0F                 	db	15
   126   002D88  8C                 	db	140
   127   002D89  0F                 	db	15
   128   002D8A  8D                 	db	141
   129   002D8B  0F                 	db	15
   130                           
   131                           ;initializer for _tris_registers
   132   002D8C  92                 	db	146
   133   002D8D  0F                 	db	15
   134   002D8E  93                 	db	147
   135   002D8F  0F                 	db	15
   136   002D90  94                 	db	148
   137   002D91  0F                 	db	15
   138   002D92  95                 	db	149
   139   002D93  0F                 	db	15
   140   002D94  96                 	db	150
   141   002D95  0F                 	db	15
   142                           
   143                           ;initializer for _lcd_2
   144   002D96  32                 	db	50
   145   002D97  3A                 	db	58
   146   002D98  03                 	db	3
   147   002D99  0B                 	db	11
   148   002D9A  13                 	db	19
   149   002D9B  1B                 	db	27
   150   002D9C  23                 	db	35
   151   002D9D  2B                 	db	43
   152   002D9E  33                 	db	51
   153   002D9F  3B                 	db	59
   154                           
   155                           ;initializer for _lcd_1
   156   002DA0  02                 	db	2
   157   002DA1  0A                 	db	10
   158   002DA2  12                 	db	18
   159   002DA3  1A                 	db	26
   160   002DA4  22                 	db	34
   161   002DA5  2A                 	db	42
   162                           
   163                           	psect	idataBANK1
   164   002D18                     __pidataBANK1:
   165                           	callstack 0
   166                           
   167                           ;initializer for _keypad_btn_values
   168   002D18  37                 	db	55
   169   002D19  00                 	db	0
   170   002D1A  00                 	db	0
   171   002D1B  38                 	db	56
   172   002D1C  00                 	db	0
   173   002D1D  00                 	db	0
   174   002D1E  39                 	db	57
   175   002D1F  00                 	db	0
   176   002D20  00                 	db	0
   177   002D21  2F                 	db	47
   178   002D22  00                 	db	0
   179   002D23  00                 	db	0
   180   002D24  34                 	db	52
   181   002D25  00                 	db	0
   182   002D26  00                 	db	0
   183   002D27  35                 	db	53
   184   002D28  00                 	db	0
   185   002D29  00                 	db	0
   186   002D2A  36                 	db	54
   187   002D2B  00                 	db	0
   188   002D2C  00                 	db	0
   189   002D2D  2A                 	db	42
   190   002D2E  00                 	db	0
   191   002D2F  00                 	db	0
   192   002D30  31                 	db	49
   193   002D31  00                 	db	0
   194   002D32  00                 	db	0
   195   002D33  32                 	db	50
   196   002D34  00                 	db	0
   197   002D35  00                 	db	0
   198   002D36  33                 	db	51
   199   002D37  00                 	db	0
   200   002D38  00                 	db	0
   201   002D39  2B                 	db	43
   202   002D3A  00                 	db	0
   203   002D3B  00                 	db	0
   204   002D3C  23                 	db	35
   205   002D3D  00                 	db	0
   206   002D3E  00                 	db	0
   207   002D3F  30                 	db	48
   208   002D40  00                 	db	0
   209   002D41  00                 	db	0
   210   002D42  3D                 	db	61
   211   002D43  00                 	db	0
   212   002D44  00                 	db	0
   213   002D45  2D                 	db	45
   214   002D46  00                 	db	0
   215   002D47  00                 	db	0
   216   000000                     _PR2	set	4043
   217   000000                     _CCPR1H	set	4031
   218   000000                     _CCPR1L	set	4030
   219   000000                     _TMR3L	set	4018
   220   000000                     _TMR3H	set	4019
   221   000000                     _TMR2	set	4044
   222   000000                     _TMR1L	set	4046
   223   000000                     _TMR1H	set	4047
   224   000000                     _TMR0L	set	4054
   225   000000                     _TMR0H	set	4055
   226   000000                     _INTCON2bits	set	4081
   227   000000                     _EECON2	set	4007
   228   000000                     _ADCON1bits	set	4033
   229   000000                     _ADRESL	set	4035
   230   000000                     _ADRESH	set	4036
   231   000000                     _INTCONbits	set	4082
   232   000000                     _TRISD	set	3989
   233   000000                     _TRISC	set	3988
   234   000000                     _TRISB	set	3987
   235   000000                     _TRISE	set	3990
   236   000000                     _PORTBbits	set	3969
   237   000000                     _PIE1bits	set	3997
   238   000000                     _ADCON2bits	set	4032
   239   000000                     _ADCON0bits	set	4034
   240   000000                     _PORTE	set	3972
   241   000000                     _PORTD	set	3971
   242   000000                     _PORTC	set	3970
   243   000000                     _PORTB	set	3969
   244   000000                     _PORTA	set	3968
   245   000000                     _LATA	set	3977
   246   000000                     _TRISA	set	3986
   247   000000                     _PIE2bits	set	4000
   248   000000                     _EECON1bits	set	4006
   249   000000                     _EEDATA	set	4008
   250   000000                     _EEADR	set	4009
   251   000000                     _EEADRH	set	4010
   252   000000                     _PIR1bits	set	3998
   253   000000                     _T2CONbits	set	4042
   254   000000                     _T1CONbits	set	4045
   255   000000                     _T0CONbits	set	4053
   256   000000                     _INTCON3bits	set	4080
   257   000000                     _T3CONbits	set	4017
   258   000000                     _LATE	set	3981
   259   000000                     _LATD	set	3980
   260   000000                     _LATC	set	3979
   261   000000                     _LATB	set	3978
   262   000000                     _PIR2bits	set	4001
   263   000000                     _CCP2CONbits	set	4026
   264   000000                     _CCP1CONbits	set	4029
   265   000000                     _CCPR2L	set	4027
   266                           
   267                           	psect	smallconst
   268   001000                     __psmallconst:
   269                           	callstack 0
   270   001000  00                 	db	0
   271   001001                     STR_1:
   272   001001  2F                 	db	47
   273   001002  30                 	db	48	;'0'
   274   001003  00                 	db	0
   275   001004                     STR_2:
   276   001004  25                 	db	37
   277   001005  69                 	db	105	;'i'
   278   001006  00                 	db	0
   279   001007  00                 	db	0	; dummy byte at the end
   280   000000                     
   281                           ; #config settings
   282                           
   283                           	psect	cinit
   284   002B8E                     __pcinit:
   285                           	callstack 0
   286   002B8E                     start_initialization:
   287                           	callstack 0
   288   002B8E                     __initialization:
   289                           	callstack 0
   290                           
   291                           ; Initialize objects allocated to BANK1 (48 bytes)
   292                           ; load TBLPTR registers with __pidataBANK1
   293   002B8E  0E18               	movlw	low __pidataBANK1
   294   002B90  6EF6               	movwf	tblptrl,c
   295   002B92  0E2D               	movlw	high __pidataBANK1
   296   002B94  6EF7               	movwf	tblptrh,c
   297   002B96  0E00               	movlw	low (__pidataBANK1 shr (0+16))
   298   002B98  6EF8               	movwf	tblptru,c
   299   002B9A  EE01  F000         	lfsr	0,__pdataBANK1
   300   002B9E  EE10 F030          	lfsr	1,48
   301   002BA2                     copy_data0:
   302   002BA2  0009               	tblrd		*+
   303   002BA4  CFF5 FFEE          	movff	tablat,postinc0
   304   002BA8  50E5               	movf	postdec1,w,c
   305   002BAA  50E1               	movf	fsr1l,w,c
   306   002BAC  E1FA               	bnz	copy_data0
   307                           
   308                           ; Initialize objects allocated to BANK0 (46 bytes)
   309                           ; load TBLPTR registers with __pidataBANK0
   310   002BAE  0E78               	movlw	low __pidataBANK0
   311   002BB0  6EF6               	movwf	tblptrl,c
   312   002BB2  0E2D               	movlw	high __pidataBANK0
   313   002BB4  6EF7               	movwf	tblptrh,c
   314   002BB6  0E00               	movlw	low (__pidataBANK0 shr (0+16))
   315   002BB8  6EF8               	movwf	tblptru,c
   316   002BBA  EE00  F0CF         	lfsr	0,__pdataBANK0
   317   002BBE  EE10 F02E          	lfsr	1,46
   318   002BC2                     copy_data1:
   319   002BC2  0009               	tblrd		*+
   320   002BC4  CFF5 FFEE          	movff	tablat,postinc0
   321   002BC8  50E5               	movf	postdec1,w,c
   322   002BCA  50E1               	movf	fsr1l,w,c
   323   002BCC  E1FA               	bnz	copy_data1
   324                           
   325                           ; Initialize objects allocated to COMRAM (4 bytes)
   326                           ; load TBLPTR registers with __pidataCOMRAM
   327   002BCE  0E34               	movlw	low __pidataCOMRAM
   328   002BD0  6EF6               	movwf	tblptrl,c
   329   002BD2  0E2E               	movlw	high __pidataCOMRAM
   330   002BD4  6EF7               	movwf	tblptrh,c
   331   002BD6  0E00               	movlw	low (__pidataCOMRAM shr (0+16))
   332   002BD8  6EF8               	movwf	tblptru,c
   333   002BDA  EE00  F078         	lfsr	0,__pdataCOMRAM
   334   002BDE  EE10 F004          	lfsr	1,4
   335   002BE2                     copy_data2:
   336   002BE2  0009               	tblrd		*+
   337   002BE4  CFF5 FFEE          	movff	tablat,postinc0
   338   002BE8  50E5               	movf	postdec1,w,c
   339   002BEA  50E1               	movf	fsr1l,w,c
   340   002BEC  E1FA               	bnz	copy_data2
   341                           
   342                           ; Clear objects allocated to BANK0 (79 bytes)
   343   002BEE  EE00  F080         	lfsr	0,__pbssBANK0
   344   002BF2  0E4F               	movlw	79
   345   002BF4                     clear_0:
   346   002BF4  6AEE               	clrf	postinc0,c
   347   002BF6  06E8               	decf	wreg,f,c
   348   002BF8  E1FD               	bnz	clear_0
   349                           
   350                           ; Clear objects allocated to COMRAM (14 bytes)
   351   002BFA  EE00  F06A         	lfsr	0,__pbssCOMRAM
   352   002BFE  0E0E               	movlw	14
   353   002C00                     clear_1:
   354   002C00  6AEE               	clrf	postinc0,c
   355   002C02  06E8               	decf	wreg,f,c
   356   002C04  E1FD               	bnz	clear_1
   357   002C06                     end_of_initialization:
   358                           	callstack 0
   359   002C06                     __end_of__initialization:
   360                           	callstack 0
   361   002C06  907C               	bcf	int$flags,0,c	;clear compiler interrupt flag (level 1)
   362   002C08  927C               	bcf	int$flags,1,c	;clear compiler interrupt flag (level 2)
   363   002C0A  0100               	movlb	0
   364   002C0C  EF28  F012         	goto	_main	;jump to C main() function
   365                           
   366                           	psect	bssCOMRAM
   367   00006A                     __pbssCOMRAM:
   368                           	callstack 0
   369   00006A                     _TMR2_Interrupt_Hundeler:
   370                           	callstack 0
   371   00006A                     	ds	2
   372   00006C                     _timer1_preload:
   373                           	callstack 0
   374   00006C                     	ds	2
   375   00006E                     _timer0_preload:
   376                           	callstack 0
   377   00006E                     	ds	2
   378   000070                     _timer2_preloaded:
   379                           	callstack 0
   380   000070                     	ds	1
   381   000071                     Relay_Turn_OFF@F3052:
   382                           	callstack 0
   383   000071                     	ds	1
   384   000072                     Relay_Turn_ON@F3047:
   385                           	callstack 0
   386   000072                     	ds	1
   387   000073                     Relay_Initialize@F3042:
   388                           	callstack 0
   389   000073                     	ds	1
   390   000074                     led_toggle@F3063:
   391                           	callstack 0
   392   000074                     	ds	1
   393   000075                     led_turn_off@F3058:
   394                           	callstack 0
   395   000075                     	ds	1
   396   000076                     led_turn_on@F3053:
   397                           	callstack 0
   398   000076                     	ds	1
   399   000077                     led_initialize@F3048:
   400                           	callstack 0
   401   000077                     	ds	1
   402                           
   403                           	psect	dataCOMRAM
   404   000078                     __pdataCOMRAM:
   405                           	callstack 0
   406   000078                     _RB7_Flag:
   407                           	callstack 0
   408   000078                     	ds	1
   409   000079                     _RB6_Flag:
   410                           	callstack 0
   411   000079                     	ds	1
   412   00007A                     _RB5_Flag:
   413                           	callstack 0
   414   00007A                     	ds	1
   415   00007B                     _RB4_Flag:
   416                           	callstack 0
   417   00007B                     	ds	1
   418                           
   419                           	psect	bssBANK0
   420   000080                     __pbssBANK0:
   421                           	callstack 0
   422   000080                     	ds	6
   423   000086                     CCP1_Compare_Mode_Set_Value@F3142:
   424                           	callstack 0
   425   000086                     	ds	2
   426   000088                     CCP1_Captured_Mode_Read_Value@F3122:
   427                           	callstack 0
   428   000088                     	ds	2
   429   00008A                     _CCP2_Interrupt_Hundeler:
   430                           	callstack 0
   431   00008A                     	ds	2
   432   00008C                     _CCP1_Interrupt_Hundeler:
   433                           	callstack 0
   434   00008C                     	ds	2
   435   00008E                     _timer3_preload:
   436                           	callstack 0
   437   00008E                     	ds	2
   438   000090                     _TMR3_Interrupt_Hundeler:
   439                           	callstack 0
   440   000090                     	ds	2
   441   000092                     _TMR1_Interrupt_Hundeler:
   442                           	callstack 0
   443   000092                     	ds	2
   444   000094                     _TMR0_Interrupt_Hundeler:
   445                           	callstack 0
   446   000094                     	ds	2
   447   000096                     _RB7_Interrupt_Handular_LOW:
   448                           	callstack 0
   449   000096                     	ds	2
   450   000098                     _RB7_Interrupt_Handular_HIGH:
   451                           	callstack 0
   452   000098                     	ds	2
   453   00009A                     _RB6_Interrupt_Handular_LOW:
   454                           	callstack 0
   455   00009A                     	ds	2
   456   00009C                     _RB6_Interrupt_Handular_HIGH:
   457                           	callstack 0
   458   00009C                     	ds	2
   459   00009E                     _RB5_Interrupt_Handular_LOW:
   460                           	callstack 0
   461   00009E                     	ds	2
   462   0000A0                     _RB5_Interrupt_Handular_HIGH:
   463                           	callstack 0
   464   0000A0                     	ds	2
   465   0000A2                     _RB4_Interrupt_Handular_LOW:
   466                           	callstack 0
   467   0000A2                     	ds	2
   468   0000A4                     _RB4_Interrupt_Handular_HIGH:
   469                           	callstack 0
   470   0000A4                     	ds	2
   471   0000A6                     _INT2_Interrupt_Handular:
   472                           	callstack 0
   473   0000A6                     	ds	2
   474   0000A8                     _INT1_Interrupt_Handular:
   475                           	callstack 0
   476   0000A8                     	ds	2
   477   0000AA                     _INT0_Interrupt_Handular:
   478                           	callstack 0
   479   0000AA                     	ds	2
   480   0000AC                     _ADC_Interrupt_Handular:
   481                           	callstack 0
   482   0000AC                     	ds	2
   483   0000AE                     _ccp2_obj:
   484                           	callstack 0
   485   0000AE                     	ds	14
   486   0000BC                     _ccp1_obj:
   487                           	callstack 0
   488   0000BC                     	ds	14
   489   0000CA                     _timer2:
   490                           	callstack 0
   491   0000CA                     	ds	5
   492                           
   493                           	psect	dataBANK0
   494   0000CF                     __pdataBANK0:
   495                           	callstack 0
   496   0000CF                     _port_registers:
   497                           	callstack 0
   498   0000CF                     	ds	10
   499   0000D9                     _lat_registers:
   500                           	callstack 0
   501   0000D9                     	ds	10
   502   0000E3                     _tris_registers:
   503                           	callstack 0
   504   0000E3                     	ds	10
   505   0000ED                     _lcd_2:
   506                           	callstack 0
   507   0000ED                     	ds	10
   508   0000F7                     _lcd_1:
   509                           	callstack 0
   510   0000F7                     	ds	6
   511                           
   512                           	psect	dataBANK1
   513   000100                     __pdataBANK1:
   514                           	callstack 0
   515   000100                     _keypad_btn_values:
   516                           	callstack 0
   517   000100                     	ds	48
   518                           
   519                           	psect	cstackBANK1
   520   000130                     __pcstackBANK1:
   521                           	callstack 0
   522   000130                     _CCP_PWM_Init$4354:
   523                           	callstack 0
   524                           
   525                           ; 4 bytes @ 0x0
   526   000130                     	ds	4
   527   000134                     _CCP_PWM_Init$4355:
   528                           	callstack 0
   529                           
   530                           ; 4 bytes @ 0x4
   531   000134                     	ds	4
   532   000138                     CCP_PWM_Init@ret:
   533                           	callstack 0
   534                           
   535                           ; 1 bytes @ 0x8
   536   000138                     	ds	1
   537                           
   538                           	psect	cstackBANK0
   539   0000FD                     __pcstackBANK0:
   540                           	callstack 0
   541   0000FD                     ??_main:
   542                           
   543                           ; 1 bytes @ 0x0
   544   0000FD                     	ds	2
   545                           
   546                           	psect	cstackCOMRAM
   547   000001                     __pcstackCOMRAM:
   548                           	callstack 0
   549   000001                     RB4_ISR@source:
   550                           	callstack 0
   551   000001                     RB5_ISR@source:
   552                           	callstack 0
   553   000001                     RB6_ISR@source:
   554                           	callstack 0
   555   000001                     RB7_ISR@source:
   556                           	callstack 0
   557                           
   558                           ; 1 bytes @ 0x0
   559   000001                     	ds	1
   560   000002                     ??_Interrupt_Manager:
   561                           
   562                           ; 1 bytes @ 0x1
   563   000002                     	ds	2
   564   000004                     ?___xxtofl:
   565                           	callstack 0
   566   000004                     gpio_pin_direction_intialize@pin_config:
   567                           	callstack 0
   568   000004                     gpio_pin_write_logic@pin_config:
   569                           	callstack 0
   570   000004                     Timer2_Init@timer2:
   571                           	callstack 0
   572   000004                     CCP_PWM_Start@ccp_obj:
   573                           	callstack 0
   574   000004                     ___xxtofl@val:
   575                           	callstack 0
   576                           
   577                           ; 4 bytes @ 0x3
   578   000004                     	ds	2
   579   000006                     ??_gpio_pin_direction_intialize:
   580   000006                     ??_Timer2_Init:
   581   000006                     gpio_pin_write_logic@logic:
   582                           	callstack 0
   583                           
   584                           ; 1 bytes @ 0x5
   585   000006                     	ds	1
   586   000007                     ??_gpio_pin_write_logic:
   587   000007                     Timer2_Init@ret:
   588                           	callstack 0
   589   000007                     CCP_PWM_Start@ret:
   590                           	callstack 0
   591                           
   592                           ; 1 bytes @ 0x6
   593   000007                     	ds	1
   594   000008                     ??___xxtofl:
   595                           
   596                           ; 1 bytes @ 0x7
   597   000008                     	ds	4
   598   00000C                     gpio_pin_direction_intialize@ret:
   599                           	callstack 0
   600   00000C                     ___xxtofl@sign:
   601                           	callstack 0
   602                           
   603                           ; 1 bytes @ 0xB
   604   00000C                     	ds	1
   605   00000D                     gpio_pin_write_logic@ret:
   606                           	callstack 0
   607   00000D                     ___xxtofl@exp:
   608                           	callstack 0
   609                           
   610                           ; 1 bytes @ 0xC
   611   00000D                     	ds	1
   612   00000E                     gpio_pin_intialize@pin_config:
   613                           	callstack 0
   614   00000E                     ___xxtofl@arg:
   615                           	callstack 0
   616                           
   617                           ; 4 bytes @ 0xD
   618   00000E                     	ds	2
   619   000010                     ??_gpio_pin_intialize:
   620                           
   621                           ; 1 bytes @ 0xF
   622   000010                     	ds	1
   623   000011                     gpio_pin_intialize@ret:
   624                           	callstack 0
   625                           
   626                           ; 1 bytes @ 0x10
   627   000011                     	ds	1
   628   000012                     ?___fldiv:
   629                           	callstack 0
   630   000012                     ___fldiv@b:
   631                           	callstack 0
   632                           
   633                           ; 4 bytes @ 0x11
   634   000012                     	ds	4
   635   000016                     ___fldiv@a:
   636                           	callstack 0
   637                           
   638                           ; 4 bytes @ 0x15
   639   000016                     	ds	4
   640   00001A                     ??___fldiv:
   641                           
   642                           ; 1 bytes @ 0x19
   643   00001A                     	ds	4
   644   00001E                     ___fldiv@rem:
   645                           	callstack 0
   646                           
   647                           ; 4 bytes @ 0x1D
   648   00001E                     	ds	4
   649   000022                     ___fldiv@sign:
   650                           	callstack 0
   651                           
   652                           ; 1 bytes @ 0x21
   653   000022                     	ds	1
   654   000023                     ___fldiv@new_exp:
   655                           	callstack 0
   656                           
   657                           ; 2 bytes @ 0x22
   658   000023                     	ds	2
   659   000025                     ___fldiv@grs:
   660                           	callstack 0
   661                           
   662                           ; 4 bytes @ 0x24
   663   000025                     	ds	4
   664   000029                     ___fldiv@bexp:
   665                           	callstack 0
   666                           
   667                           ; 1 bytes @ 0x28
   668   000029                     	ds	1
   669   00002A                     ___fldiv@aexp:
   670                           	callstack 0
   671                           
   672                           ; 1 bytes @ 0x29
   673   00002A                     	ds	1
   674   00002B                     ?___flmul:
   675                           	callstack 0
   676   00002B                     ___flmul@b:
   677                           	callstack 0
   678                           
   679                           ; 4 bytes @ 0x2A
   680   00002B                     	ds	4
   681   00002F                     ___flmul@a:
   682                           	callstack 0
   683                           
   684                           ; 4 bytes @ 0x2E
   685   00002F                     	ds	4
   686   000033                     ??___flmul:
   687                           
   688                           ; 1 bytes @ 0x32
   689   000033                     	ds	4
   690   000037                     ___flmul@sign:
   691                           	callstack 0
   692                           
   693                           ; 1 bytes @ 0x36
   694   000037                     	ds	1
   695   000038                     ___flmul@aexp:
   696                           	callstack 0
   697                           
   698                           ; 1 bytes @ 0x37
   699   000038                     	ds	1
   700   000039                     ___flmul@grs:
   701                           	callstack 0
   702                           
   703                           ; 4 bytes @ 0x38
   704   000039                     	ds	4
   705   00003D                     ___flmul@bexp:
   706                           	callstack 0
   707                           
   708                           ; 1 bytes @ 0x3C
   709   00003D                     	ds	1
   710   00003E                     ___flmul@prod:
   711                           	callstack 0
   712                           
   713                           ; 4 bytes @ 0x3D
   714   00003E                     	ds	4
   715   000042                     ___flmul@temp:
   716                           	callstack 0
   717                           
   718                           ; 2 bytes @ 0x41
   719   000042                     	ds	2
   720   000044                     ?___fladd:
   721                           	callstack 0
   722   000044                     ___fladd@b:
   723                           	callstack 0
   724                           
   725                           ; 4 bytes @ 0x43
   726   000044                     	ds	4
   727   000048                     ___fladd@a:
   728                           	callstack 0
   729                           
   730                           ; 4 bytes @ 0x47
   731   000048                     	ds	4
   732   00004C                     ??___fladd:
   733                           
   734                           ; 1 bytes @ 0x4B
   735   00004C                     	ds	4
   736   000050                     ___fladd@signs:
   737                           	callstack 0
   738                           
   739                           ; 1 bytes @ 0x4F
   740   000050                     	ds	1
   741   000051                     ___fladd@aexp:
   742                           	callstack 0
   743                           
   744                           ; 1 bytes @ 0x50
   745   000051                     	ds	1
   746   000052                     ___fladd@bexp:
   747                           	callstack 0
   748                           
   749                           ; 1 bytes @ 0x51
   750   000052                     	ds	1
   751   000053                     ___fladd@grs:
   752                           	callstack 0
   753                           
   754                           ; 1 bytes @ 0x52
   755   000053                     	ds	1
   756   000054                     ?___fltol:
   757                           	callstack 0
   758   000054                     ___fltol@f1:
   759                           	callstack 0
   760                           
   761                           ; 4 bytes @ 0x53
   762   000054                     	ds	4
   763   000058                     ??___fltol:
   764                           
   765                           ; 1 bytes @ 0x57
   766   000058                     	ds	4
   767   00005C                     ___fltol@sign1:
   768                           	callstack 0
   769                           
   770                           ; 1 bytes @ 0x5B
   771   00005C                     	ds	1
   772   00005D                     ___fltol@exp1:
   773                           	callstack 0
   774                           
   775                           ; 1 bytes @ 0x5C
   776   00005D                     	ds	1
   777   00005E                     CCP_PWM_Init@ccp_obj:
   778                           	callstack 0
   779   00005E                     CCP_PWM_Set_Duty@ccp_obj:
   780                           	callstack 0
   781                           
   782                           ; 2 bytes @ 0x5D
   783   00005E                     	ds	2
   784   000060                     ??_CCP_PWM_Init:
   785   000060                     CCP_PWM_Set_Duty@duty:
   786                           	callstack 0
   787                           
   788                           ; 1 bytes @ 0x5F
   789   000060                     	ds	1
   790   000061                     ??_CCP_PWM_Set_Duty:
   791                           
   792                           ; 1 bytes @ 0x60
   793   000061                     	ds	2
   794   000063                     _CCP_PWM_Set_Duty$4188:
   795                           	callstack 0
   796                           
   797                           ; 4 bytes @ 0x62
   798   000063                     	ds	4
   799   000067                     CCP_PWM_Set_Duty@ret:
   800                           	callstack 0
   801                           
   802                           ; 1 bytes @ 0x66
   803   000067                     	ds	1
   804   000068                     CCP_PWM_Set_Duty@l_duty_temp:
   805                           	callstack 0
   806                           
   807                           ; 2 bytes @ 0x67
   808   000068                     	ds	2
   809                           
   810 ;;
   811 ;;Main: autosize = 0, tempsize = 2, incstack = 0, save=0
   812 ;;
   813 ;; *************** function _main *****************
   814 ;; Defined at:
   815 ;;		line 12 in file "application.c"
   816 ;; Parameters:    Size  Location     Type
   817 ;;		None
   818 ;; Auto vars:     Size  Location     Type
   819 ;;  ret             1    0        unsigned char 
   820 ;; Return value:  Size  Location     Type
   821 ;;                  2  1138[None  ] int 
   822 ;; Registers used:
   823 ;;		wreg, fsr2l, fsr2h, status,2, status,0, prodl, prodh, cstack
   824 ;; Tracked objects:
   825 ;;		On entry : 0/0
   826 ;;		On exit  : 0/0
   827 ;;		Unchanged: 0/0
   828 ;; Data sizes:     COMRAM   BANK0   BANK1   BANK2   BANK3   BANK4   BANK5   BANK6   BANK7   BANK8   BANK9  BANK10  BANK1
      +1  BANK12  BANK13  BANK14  BANK15
   829 ;;      Params:         0       0       0       0       0       0       0       0       0       0       0       0       
      +0       0       0       0       0
   830 ;;      Locals:         0       0       0       0       0       0       0       0       0       0       0       0       
      +0       0       0       0       0
   831 ;;      Temps:          0       2       0       0       0       0       0       0       0       0       0       0       
      +0       0       0       0       0
   832 ;;      Totals:         0       2       0       0       0       0       0       0       0       0       0       0       
      +0       0       0       0       0
   833 ;;Total ram usage:        2 bytes
   834 ;; Hardware stack levels required when called: 6
   835 ;; This function calls:
   836 ;;		_CCP_PWM_Init
   837 ;;		_CCP_PWM_Set_Duty
   838 ;;		_CCP_PWM_Start
   839 ;;		_Timer2_Init
   840 ;; This function is called by:
   841 ;;		Startup code after reset
   842 ;; This function uses a non-reentrant model
   843 ;;
   844                           
   845                           	psect	text0
   846   002450                     __ptext0:
   847                           	callstack 0
   848   002450                     _main:
   849                           	callstack 25
   850   002450                     
   851                           ;application.c: 16: ccp1_obj.CCP1_Interrupt_Hundeler = ((void*)0);
   852   002450  0E00               	movlw	0
   853   002452  0100               	movlb	0	; () banked
   854   002454  6FC4               	movwf	(_ccp1_obj+8)& (0+255),b
   855   002456  0E00               	movlw	0
   856   002458  6FC5               	movwf	(_ccp1_obj+9)& (0+255),b
   857   00245A                     
   858                           ; BSR set to: 0
   859                           ;application.c: 17: ccp1_obj.ccp_mode = CCP_PWM_MODE_SELECTED;
   860   00245A  0E02               	movlw	2
   861   00245C  6FBD               	movwf	(_ccp1_obj+1)& (0+255),b
   862   00245E                     
   863                           ; BSR set to: 0
   864                           ;application.c: 18: ccp1_obj.PWM_Freq = 20000;
   865   00245E  0E4E               	movlw	78
   866   002460  6FC3               	movwf	(_ccp1_obj+7)& (0+255),b
   867   002462  0E20               	movlw	32
   868   002464  6FC2               	movwf	(_ccp1_obj+6)& (0+255),b
   869   002466                     
   870                           ; BSR set to: 0
   871                           ;application.c: 19: ccp1_obj.ccp_pin.port = PORTC_INDEX;
   872   002466  51BF               	movf	(_ccp1_obj+3)& (0+255),w,b
   873   002468  0BF8               	andlw	-8
   874   00246A  0902               	iorlw	2
   875   00246C  6FBF               	movwf	(_ccp1_obj+3)& (0+255),b
   876   00246E                     
   877                           ; BSR set to: 0
   878                           ;application.c: 20: ccp1_obj.ccp_pin.pin = PIN2;
   879   00246E  51BF               	movf	(_ccp1_obj+3)& (0+255),w,b
   880   002470  0BC7               	andlw	-57
   881   002472  0910               	iorlw	16
   882   002474  6FBF               	movwf	(_ccp1_obj+3)& (0+255),b
   883   002476                     
   884                           ; BSR set to: 0
   885                           ;application.c: 21: ccp1_obj.ccp_pin.direction = Output;
   886   002476  9DBF               	bcf	(_ccp1_obj+3)& (0+255),6,b
   887   002478                     
   888                           ; BSR set to: 0
   889                           ;application.c: 22: ccp1_obj.ccp_module_type = CCP1_Module;
   890   002478  0E00               	movlw	0
   891   00247A  6FBC               	movwf	_ccp1_obj& (0+255),b
   892   00247C                     
   893                           ; BSR set to: 0
   894                           ;application.c: 23: ccp1_obj.timer2_prescaler_value = 1;
   895   00247C  51C1               	movf	(_ccp1_obj+5)& (0+255),w,b
   896   00247E  0BFC               	andlw	-4
   897   002480  0901               	iorlw	1
   898   002482  6FC1               	movwf	(_ccp1_obj+5)& (0+255),b
   899   002484                     
   900                           ; BSR set to: 0
   901                           ;application.c: 24: ccp1_obj.timer2_postscaler_value= 1;
   902   002484  51C1               	movf	(_ccp1_obj+5)& (0+255),w,b
   903   002486  0BF3               	andlw	-13
   904   002488  0904               	iorlw	4
   905   00248A  6FC1               	movwf	(_ccp1_obj+5)& (0+255),b
   906   00248C                     
   907                           ; BSR set to: 0
   908   00248C  0EBC               	movlw	low _ccp1_obj
   909   00248E  6E5E               	movwf	CCP_PWM_Init@ccp_obj^0,c
   910   002490  0E00               	movlw	high _ccp1_obj
   911   002492  6E5F               	movwf	(CCP_PWM_Init@ccp_obj+1)^0,c
   912   002494  EC01  F010         	call	_CCP_PWM_Init	;wreg free
   913   002498                     
   914                           ;application.c: 28: ccp2_obj.CCP1_Interrupt_Hundeler = ((void*)0);
   915   002498  0E00               	movlw	0
   916   00249A  0100               	movlb	0	; () banked
   917   00249C  6FB6               	movwf	(_ccp2_obj+8)& (0+255),b
   918   00249E  0E00               	movlw	0
   919   0024A0  6FB7               	movwf	(_ccp2_obj+9)& (0+255),b
   920   0024A2                     
   921                           ; BSR set to: 0
   922                           ;application.c: 29: ccp2_obj.ccp_mode = CCP_PWM_MODE_SELECTED;
   923   0024A2  0E02               	movlw	2
   924   0024A4  6FAF               	movwf	(_ccp2_obj+1)& (0+255),b
   925   0024A6                     
   926                           ; BSR set to: 0
   927                           ;application.c: 30: ccp2_obj.PWM_Freq = 20000;
   928   0024A6  0E4E               	movlw	78
   929   0024A8  6FB5               	movwf	(_ccp2_obj+7)& (0+255),b
   930   0024AA  0E20               	movlw	32
   931   0024AC  6FB4               	movwf	(_ccp2_obj+6)& (0+255),b
   932   0024AE                     
   933                           ; BSR set to: 0
   934                           ;application.c: 31: ccp2_obj.ccp_pin.port = PORTC_INDEX;
   935   0024AE  51B1               	movf	(_ccp2_obj+3)& (0+255),w,b
   936   0024B0  0BF8               	andlw	-8
   937   0024B2  0902               	iorlw	2
   938   0024B4  6FB1               	movwf	(_ccp2_obj+3)& (0+255),b
   939   0024B6                     
   940                           ; BSR set to: 0
   941                           ;application.c: 32: ccp2_obj.ccp_pin.pin = PIN1;
   942   0024B6  51B1               	movf	(_ccp2_obj+3)& (0+255),w,b
   943   0024B8  0BC7               	andlw	-57
   944   0024BA  0908               	iorlw	8
   945   0024BC  6FB1               	movwf	(_ccp2_obj+3)& (0+255),b
   946   0024BE                     
   947                           ; BSR set to: 0
   948                           ;application.c: 33: ccp2_obj.ccp_pin.direction = Output;
   949   0024BE  9DB1               	bcf	(_ccp2_obj+3)& (0+255),6,b
   950   0024C0                     
   951                           ; BSR set to: 0
   952                           ;application.c: 34: ccp2_obj.ccp_module_type = CCP2_Module;
   953   0024C0  0E01               	movlw	1
   954   0024C2  6FAE               	movwf	_ccp2_obj& (0+255),b
   955   0024C4                     
   956                           ; BSR set to: 0
   957                           ;application.c: 35: ccp2_obj.timer2_prescaler_value = 1;
   958   0024C4  51B3               	movf	(_ccp2_obj+5)& (0+255),w,b
   959   0024C6  0BFC               	andlw	-4
   960   0024C8  0901               	iorlw	1
   961   0024CA  6FB3               	movwf	(_ccp2_obj+5)& (0+255),b
   962   0024CC                     
   963                           ; BSR set to: 0
   964                           ;application.c: 36: ccp2_obj.timer2_postscaler_value= 1;
   965   0024CC  51B3               	movf	(_ccp2_obj+5)& (0+255),w,b
   966   0024CE  0BF3               	andlw	-13
   967   0024D0  0904               	iorlw	4
   968   0024D2  6FB3               	movwf	(_ccp2_obj+5)& (0+255),b
   969   0024D4                     
   970                           ; BSR set to: 0
   971   0024D4  0EAE               	movlw	low _ccp2_obj
   972   0024D6  6E5E               	movwf	CCP_PWM_Init@ccp_obj^0,c
   973   0024D8  0E00               	movlw	high _ccp2_obj
   974   0024DA  6E5F               	movwf	(CCP_PWM_Init@ccp_obj+1)^0,c
   975   0024DC  EC01  F010         	call	_CCP_PWM_Init	;wreg free
   976   0024E0  0ECA               	movlw	low _timer2
   977   0024E2  6E04               	movwf	Timer2_Init@timer2^0,c
   978   0024E4  0E00               	movlw	high _timer2
   979   0024E6  6E05               	movwf	(Timer2_Init@timer2+1)^0,c
   980   0024E8  EC78  F015         	call	_Timer2_Init	;wreg free
   981   0024EC                     l8699:
   982   0024EC  0EBC               	movlw	low _ccp1_obj
   983   0024EE  6E5E               	movwf	CCP_PWM_Set_Duty@ccp_obj^0,c
   984   0024F0  0E00               	movlw	high _ccp1_obj
   985   0024F2  6E5F               	movwf	(CCP_PWM_Set_Duty@ccp_obj+1)^0,c
   986   0024F4  0E19               	movlw	25
   987   0024F6  6E60               	movwf	CCP_PWM_Set_Duty@duty^0,c
   988   0024F8  ECF5  F012         	call	_CCP_PWM_Set_Duty	;wreg free
   989   0024FC  0EBC               	movlw	low _ccp1_obj
   990   0024FE  6E04               	movwf	CCP_PWM_Start@ccp_obj^0,c
   991   002500  0E00               	movlw	high _ccp1_obj
   992   002502  6E05               	movwf	(CCP_PWM_Start@ccp_obj+1)^0,c
   993   002504  EC3E  F016         	call	_CCP_PWM_Start	;wreg free
   994   002508  0EAE               	movlw	low _ccp2_obj
   995   00250A  6E5E               	movwf	CCP_PWM_Set_Duty@ccp_obj^0,c
   996   00250C  0E00               	movlw	high _ccp2_obj
   997   00250E  6E5F               	movwf	(CCP_PWM_Set_Duty@ccp_obj+1)^0,c
   998   002510  0E19               	movlw	25
   999   002512  6E60               	movwf	CCP_PWM_Set_Duty@duty^0,c
  1000   002514  ECF5  F012         	call	_CCP_PWM_Set_Duty	;wreg free
  1001   002518  0EAE               	movlw	low _ccp2_obj
  1002   00251A  6E04               	movwf	CCP_PWM_Start@ccp_obj^0,c
  1003   00251C  0E00               	movlw	high _ccp2_obj
  1004   00251E  6E05               	movwf	(CCP_PWM_Start@ccp_obj+1)^0,c
  1005   002520  EC3E  F016         	call	_CCP_PWM_Start	;wreg free
  1006   002524                     
  1007                           ;application.c: 48: _delay((unsigned long)((2000)*(4000000UL/4000.0)));
  1008   002524  0E0B               	movlw	11
  1009   002526  0100               	movlb	0	; () banked
  1010   002528  6FFE               	movwf	(??_main+1)& (0+255),b
  1011   00252A  0E26               	movlw	38
  1012   00252C  6FFD               	movwf	??_main& (0+255),b
  1013   00252E  0E5D               	movlw	93
  1014   002530                     u8957:
  1015   002530  2EE8               	decfsz	wreg,f,c
  1016   002532  D7FE               	bra	u8957
  1017   002534  2FFD               	decfsz	??_main& (0+255),f,b
  1018   002536  D7FC               	bra	u8957
  1019   002538  2FFE               	decfsz	(??_main+1)& (0+255),f,b
  1020   00253A  D7FA               	bra	u8957
  1021   00253C  D000               	nop2	
  1022   00253E  0EBC               	movlw	low _ccp1_obj
  1023   002540  6E5E               	movwf	CCP_PWM_Set_Duty@ccp_obj^0,c
  1024   002542  0E00               	movlw	high _ccp1_obj
  1025   002544  6E5F               	movwf	(CCP_PWM_Set_Duty@ccp_obj+1)^0,c
  1026   002546  0E32               	movlw	50
  1027   002548  6E60               	movwf	CCP_PWM_Set_Duty@duty^0,c
  1028   00254A  ECF5  F012         	call	_CCP_PWM_Set_Duty	;wreg free
  1029   00254E  0EBC               	movlw	low _ccp1_obj
  1030   002550  6E04               	movwf	CCP_PWM_Start@ccp_obj^0,c
  1031   002552  0E00               	movlw	high _ccp1_obj
  1032   002554  6E05               	movwf	(CCP_PWM_Start@ccp_obj+1)^0,c
  1033   002556  EC3E  F016         	call	_CCP_PWM_Start	;wreg free
  1034   00255A  0EAE               	movlw	low _ccp2_obj
  1035   00255C  6E5E               	movwf	CCP_PWM_Set_Duty@ccp_obj^0,c
  1036   00255E  0E00               	movlw	high _ccp2_obj
  1037   002560  6E5F               	movwf	(CCP_PWM_Set_Duty@ccp_obj+1)^0,c
  1038   002562  0E32               	movlw	50
  1039   002564  6E60               	movwf	CCP_PWM_Set_Duty@duty^0,c
  1040   002566  ECF5  F012         	call	_CCP_PWM_Set_Duty	;wreg free
  1041   00256A  0EAE               	movlw	low _ccp2_obj
  1042   00256C  6E04               	movwf	CCP_PWM_Start@ccp_obj^0,c
  1043   00256E  0E00               	movlw	high _ccp2_obj
  1044   002570  6E05               	movwf	(CCP_PWM_Start@ccp_obj+1)^0,c
  1045   002572  EC3E  F016         	call	_CCP_PWM_Start	;wreg free
  1046   002576                     
  1047                           ;application.c: 53: _delay((unsigned long)((2000)*(4000000UL/4000.0)));
  1048   002576  0E0B               	movlw	11
  1049   002578  0100               	movlb	0	; () banked
  1050   00257A  6FFE               	movwf	(??_main+1)& (0+255),b
  1051   00257C  0E26               	movlw	38
  1052   00257E  6FFD               	movwf	??_main& (0+255),b
  1053   002580  0E5D               	movlw	93
  1054   002582                     u8967:
  1055   002582  2EE8               	decfsz	wreg,f,c
  1056   002584  D7FE               	bra	u8967
  1057   002586  2FFD               	decfsz	??_main& (0+255),f,b
  1058   002588  D7FC               	bra	u8967
  1059   00258A  2FFE               	decfsz	(??_main+1)& (0+255),f,b
  1060   00258C  D7FA               	bra	u8967
  1061   00258E  D000               	nop2	
  1062   002590  0EBC               	movlw	low _ccp1_obj
  1063   002592  6E5E               	movwf	CCP_PWM_Set_Duty@ccp_obj^0,c
  1064   002594  0E00               	movlw	high _ccp1_obj
  1065   002596  6E5F               	movwf	(CCP_PWM_Set_Duty@ccp_obj+1)^0,c
  1066   002598  0E4B               	movlw	75
  1067   00259A  6E60               	movwf	CCP_PWM_Set_Duty@duty^0,c
  1068   00259C  ECF5  F012         	call	_CCP_PWM_Set_Duty	;wreg free
  1069   0025A0  0EBC               	movlw	low _ccp1_obj
  1070   0025A2  6E04               	movwf	CCP_PWM_Start@ccp_obj^0,c
  1071   0025A4  0E00               	movlw	high _ccp1_obj
  1072   0025A6  6E05               	movwf	(CCP_PWM_Start@ccp_obj+1)^0,c
  1073   0025A8  EC3E  F016         	call	_CCP_PWM_Start	;wreg free
  1074   0025AC  0EAE               	movlw	low _ccp2_obj
  1075   0025AE  6E5E               	movwf	CCP_PWM_Set_Duty@ccp_obj^0,c
  1076   0025B0  0E00               	movlw	high _ccp2_obj
  1077   0025B2  6E5F               	movwf	(CCP_PWM_Set_Duty@ccp_obj+1)^0,c
  1078   0025B4  0E4B               	movlw	75
  1079   0025B6  6E60               	movwf	CCP_PWM_Set_Duty@duty^0,c
  1080   0025B8  ECF5  F012         	call	_CCP_PWM_Set_Duty	;wreg free
  1081   0025BC  0EAE               	movlw	low _ccp2_obj
  1082   0025BE  6E04               	movwf	CCP_PWM_Start@ccp_obj^0,c
  1083   0025C0  0E00               	movlw	high _ccp2_obj
  1084   0025C2  6E05               	movwf	(CCP_PWM_Start@ccp_obj+1)^0,c
  1085   0025C4  EC3E  F016         	call	_CCP_PWM_Start	;wreg free
  1086   0025C8                     
  1087                           ;application.c: 58: _delay((unsigned long)((2000)*(4000000UL/4000.0)));
  1088   0025C8  0E0B               	movlw	11
  1089   0025CA  0100               	movlb	0	; () banked
  1090   0025CC  6FFE               	movwf	(??_main+1)& (0+255),b
  1091   0025CE  0E26               	movlw	38
  1092   0025D0  6FFD               	movwf	??_main& (0+255),b
  1093   0025D2  0E5D               	movlw	93
  1094   0025D4                     u8977:
  1095   0025D4  2EE8               	decfsz	wreg,f,c
  1096   0025D6  D7FE               	bra	u8977
  1097   0025D8  2FFD               	decfsz	??_main& (0+255),f,b
  1098   0025DA  D7FC               	bra	u8977
  1099   0025DC  2FFE               	decfsz	(??_main+1)& (0+255),f,b
  1100   0025DE  D7FA               	bra	u8977
  1101   0025E0  D000               	nop2	
  1102   0025E2  EF76  F012         	goto	l8699
  1103   0025E6  EF07  F000         	goto	start
  1104   0025EA                     __end_of_main:
  1105                           	callstack 0
  1106                           
  1107 ;; *************** function _Timer2_Init *****************
  1108 ;; Defined at:
  1109 ;;		line 14 in file "MCAL_Layer/Timer2/hal_timer2.c"
  1110 ;; Parameters:    Size  Location     Type
  1111 ;;  timer2          2    3[COMRAM] PTR const struct .
  1112 ;;		 -> timer2(5), 
  1113 ;; Auto vars:     Size  Location     Type
  1114 ;;  ret             1    6[COMRAM] unsigned char 
  1115 ;; Return value:  Size  Location     Type
  1116 ;;                  1    wreg      unsigned char 
  1117 ;; Registers used:
  1118 ;;		wreg, fsr2l, fsr2h, status,2, status,0
  1119 ;; Tracked objects:
  1120 ;;		On entry : 0/0
  1121 ;;		On exit  : 0/0
  1122 ;;		Unchanged: 0/0
  1123 ;; Data sizes:     COMRAM   BANK0   BANK1   BANK2   BANK3   BANK4   BANK5   BANK6   BANK7   BANK8   BANK9  BANK10  BANK1
      +1  BANK12  BANK13  BANK14  BANK15
  1124 ;;      Params:         2       0       0       0       0       0       0       0       0       0       0       0       
      +0       0       0       0       0
  1125 ;;      Locals:         1       0       0       0       0       0       0       0       0       0       0       0       
      +0       0       0       0       0
  1126 ;;      Temps:          1       0       0       0       0       0       0       0       0       0       0       0       
      +0       0       0       0       0
  1127 ;;      Totals:         4       0       0       0       0       0       0       0       0       0       0       0       
      +0       0       0       0       0
  1128 ;;Total ram usage:        4 bytes
  1129 ;; Hardware stack levels used: 1
  1130 ;; Hardware stack levels required when called: 3
  1131 ;; This function calls:
  1132 ;;		Nothing
  1133 ;; This function is called by:
  1134 ;;		_main
  1135 ;; This function uses a non-reentrant model
  1136 ;;
  1137                           
  1138                           	psect	text1
  1139   002AF0                     __ptext1:
  1140                           	callstack 0
  1141   002AF0                     _Timer2_Init:
  1142                           	callstack 27
  1143   002AF0                     
  1144                           ;MCAL_Layer/Timer2/hal_timer2.c: 15: Std_ReturnType ret = (Std_ReturnType)0x01;
  1145   002AF0  0E01               	movlw	1
  1146   002AF2  6E07               	movwf	Timer2_Init@ret^0,c
  1147   002AF4                     
  1148                           ;MCAL_Layer/Timer2/hal_timer2.c: 16: if(timer2 == ((void*)0)){
  1149   002AF4  5004               	movf	Timer2_Init@timer2^0,w,c
  1150   002AF6  1005               	iorwf	(Timer2_Init@timer2+1)^0,w,c
  1151   002AF8  A4D8               	btfss	status,2,c
  1152   002AFA  EF81  F015         	goto	u5161
  1153   002AFE  EF83  F015         	goto	u5160
  1154   002B02                     u5161:
  1155   002B02  EF87  F015         	goto	l1040
  1156   002B06                     u5160:
  1157   002B06                     
  1158                           ;MCAL_Layer/Timer2/hal_timer2.c: 17:     ret = (Std_ReturnType)0x00;
  1159   002B06  0E00               	movlw	0
  1160   002B08  6E07               	movwf	Timer2_Init@ret^0,c
  1161                           
  1162                           ;MCAL_Layer/Timer2/hal_timer2.c: 18: }
  1163   002B0A  EFC5  F015         	goto	l5833
  1164   002B0E                     l1040:
  1165                           
  1166                           ;MCAL_Layer/Timer2/hal_timer2.c: 20: (T2CONbits.TMR2ON = 0);
  1167   002B0E  94CA               	bcf	202,2,c	;volatile
  1168   002B10                     
  1169                           ;MCAL_Layer/Timer2/hal_timer2.c: 21: (T2CONbits.T2CKPS = timer2->timer2_prescaller_value
      +                          );
  1170   002B10  EE20 F004          	lfsr	2,4
  1171   002B14  5004               	movf	Timer2_Init@timer2^0,w,c
  1172   002B16  26D9               	addwf	fsr2l,f,c
  1173   002B18  5005               	movf	(Timer2_Init@timer2+1)^0,w,c
  1174   002B1A  22DA               	addwfc	fsr2h,f,c
  1175   002B1C  50DF               	movf	223,w,c
  1176   002B1E  0B03               	andlw	3
  1177   002B20  6E06               	movwf	??_Timer2_Init^0,c
  1178   002B22  50CA               	movf	202,w,c	;volatile
  1179   002B24  1806               	xorwf	??_Timer2_Init^0,w,c
  1180   002B26  0BFC               	andlw	-4
  1181   002B28  1806               	xorwf	??_Timer2_Init^0,w,c
  1182   002B2A  6ECA               	movwf	202,c	;volatile
  1183                           
  1184                           ;MCAL_Layer/Timer2/hal_timer2.c: 22: (T2CONbits.TOUTPS = timer2->timer2_post_scaller_val
      +                          ue);
  1185   002B2C  EE20 F004          	lfsr	2,4
  1186   002B30  5004               	movf	Timer2_Init@timer2^0,w,c
  1187   002B32  26D9               	addwf	fsr2l,f,c
  1188   002B34  5005               	movf	(Timer2_Init@timer2+1)^0,w,c
  1189   002B36  22DA               	addwfc	fsr2h,f,c
  1190   002B38  30DF               	rrcf	223,w,c
  1191   002B3A  32E8               	rrcf	wreg,f,c
  1192   002B3C  0B0F               	andlw	15
  1193   002B3E  6E06               	movwf	??_Timer2_Init^0,c
  1194   002B40  4606               	rlncf	??_Timer2_Init^0,f,c
  1195   002B42  4606               	rlncf	??_Timer2_Init^0,f,c
  1196   002B44  4606               	rlncf	??_Timer2_Init^0,f,c
  1197   002B46  50CA               	movf	202,w,c	;volatile
  1198   002B48  1806               	xorwf	??_Timer2_Init^0,w,c
  1199   002B4A  0B87               	andlw	-121
  1200   002B4C  1806               	xorwf	??_Timer2_Init^0,w,c
  1201   002B4E  6ECA               	movwf	202,c	;volatile
  1202                           
  1203                           ;MCAL_Layer/Timer2/hal_timer2.c: 23: TMR2 = timer2->timer2_preloaded_value;
  1204   002B50  EE20 F003          	lfsr	2,3
  1205   002B54  5004               	movf	Timer2_Init@timer2^0,w,c
  1206   002B56  26D9               	addwf	fsr2l,f,c
  1207   002B58  5005               	movf	(Timer2_Init@timer2+1)^0,w,c
  1208   002B5A  22DA               	addwfc	fsr2h,f,c
  1209   002B5C  50DF               	movf	indf2,w,c
  1210   002B5E  6ECC               	movwf	204,c	;volatile
  1211                           
  1212                           ;MCAL_Layer/Timer2/hal_timer2.c: 24: timer2_preloaded = timer2->timer2_preloaded_value;
  1213   002B60  EE20 F003          	lfsr	2,3
  1214   002B64  5004               	movf	Timer2_Init@timer2^0,w,c
  1215   002B66  26D9               	addwf	fsr2l,f,c
  1216   002B68  5005               	movf	(Timer2_Init@timer2+1)^0,w,c
  1217   002B6A  22DA               	addwfc	fsr2h,f,c
  1218   002B6C  50DF               	movf	indf2,w,c
  1219   002B6E  6E70               	movwf	_timer2_preloaded^0,c
  1220   002B70                     
  1221                           ;MCAL_Layer/Timer2/hal_timer2.c: 26:   (PIE1bits.TMR2IE = 1);
  1222   002B70  829D               	bsf	157,1,c	;volatile
  1223   002B72                     
  1224                           ;MCAL_Layer/Timer2/hal_timer2.c: 27:   (PIR1bits.TMR2IF = 0);
  1225   002B72  929E               	bcf	158,1,c	;volatile
  1226   002B74                     
  1227                           ;MCAL_Layer/Timer2/hal_timer2.c: 28:   TMR2_Interrupt_Hundeler = timer2->TMR2_Interrupt_
      +                          Hundeler;
  1228   002B74  C004  FFD9         	movff	Timer2_Init@timer2,fsr2l
  1229   002B78  C005  FFDA         	movff	Timer2_Init@timer2+1,fsr2h
  1230   002B7C  CFDE F06A          	movff	postinc2,_TMR2_Interrupt_Hundeler
  1231   002B80  CFDD F06B          	movff	postdec2,_TMR2_Interrupt_Hundeler+1
  1232   002B84                     
  1233                           ;MCAL_Layer/Timer2/hal_timer2.c: 41:   (INTCONbits.GIE = 1);
  1234   002B84  8EF2               	bsf	242,7,c	;volatile
  1235   002B86                     
  1236                           ;MCAL_Layer/Timer2/hal_timer2.c: 42:   (INTCONbits.PEIE = 0);
  1237   002B86  9CF2               	bcf	242,6,c	;volatile
  1238   002B88                     
  1239                           ;MCAL_Layer/Timer2/hal_timer2.c: 46: (T2CONbits.TMR2ON = 1);
  1240   002B88  84CA               	bsf	202,2,c	;volatile
  1241   002B8A                     l5833:
  1242                           
  1243                           ;MCAL_Layer/Timer2/hal_timer2.c: 48: return ret;
  1244   002B8A  5007               	movf	Timer2_Init@ret^0,w,c
  1245   002B8C  0012               	return		;funcret
  1246   002B8E                     __end_of_Timer2_Init:
  1247                           	callstack 0
  1248                           
  1249 ;; *************** function _CCP_PWM_Start *****************
  1250 ;; Defined at:
  1251 ;;		line 410 in file "MCAL_Layer/CCP1/hal_ccp.c"
  1252 ;; Parameters:    Size  Location     Type
  1253 ;;  ccp_obj         2    3[COMRAM] PTR const struct .
  1254 ;;		 -> ccp2_obj(14), ccp1_obj(14), 
  1255 ;; Auto vars:     Size  Location     Type
  1256 ;;  ret             1    6[COMRAM] unsigned char 
  1257 ;; Return value:  Size  Location     Type
  1258 ;;                  1    wreg      unsigned char 
  1259 ;; Registers used:
  1260 ;;		wreg, fsr2l, fsr2h, status,2, status,0
  1261 ;; Tracked objects:
  1262 ;;		On entry : 0/0
  1263 ;;		On exit  : 0/0
  1264 ;;		Unchanged: 0/0
  1265 ;; Data sizes:     COMRAM   BANK0   BANK1   BANK2   BANK3   BANK4   BANK5   BANK6   BANK7   BANK8   BANK9  BANK10  BANK1
      +1  BANK12  BANK13  BANK14  BANK15
  1266 ;;      Params:         2       0       0       0       0       0       0       0       0       0       0       0       
      +0       0       0       0       0
  1267 ;;      Locals:         1       0       0       0       0       0       0       0       0       0       0       0       
      +0       0       0       0       0
  1268 ;;      Temps:          1       0       0       0       0       0       0       0       0       0       0       0       
      +0       0       0       0       0
  1269 ;;      Totals:         4       0       0       0       0       0       0       0       0       0       0       0       
      +0       0       0       0       0
  1270 ;;Total ram usage:        4 bytes
  1271 ;; Hardware stack levels used: 1
  1272 ;; Hardware stack levels required when called: 3
  1273 ;; This function calls:
  1274 ;;		Nothing
  1275 ;; This function is called by:
  1276 ;;		_main
  1277 ;; This function uses a non-reentrant model
  1278 ;;
  1279                           
  1280                           	psect	text2
  1281   002C7C                     __ptext2:
  1282                           	callstack 0
  1283   002C7C                     _CCP_PWM_Start:
  1284                           	callstack 27
  1285   002C7C                     
  1286                           ;MCAL_Layer/CCP1/hal_ccp.c: 411: Std_ReturnType ret = (Std_ReturnType)0x01;
  1287   002C7C  0E01               	movlw	1
  1288   002C7E  6E07               	movwf	CCP_PWM_Start@ret^0,c
  1289   002C80                     
  1290                           ;MCAL_Layer/CCP1/hal_ccp.c: 413: if(ccp_obj == ((void*)0)){
  1291   002C80  5004               	movf	CCP_PWM_Start@ccp_obj^0,w,c
  1292   002C82  1005               	iorwf	(CCP_PWM_Start@ccp_obj+1)^0,w,c
  1293   002C84  A4D8               	btfss	status,2,c
  1294   002C86  EF47  F016         	goto	u5281
  1295   002C8A  EF49  F016         	goto	u5280
  1296   002C8E                     u5281:
  1297   002C8E  EF4D  F016         	goto	l5909
  1298   002C92                     u5280:
  1299   002C92                     
  1300                           ;MCAL_Layer/CCP1/hal_ccp.c: 414: ret = (Std_ReturnType)0x00;
  1301   002C92  0E00               	movlw	0
  1302   002C94  6E07               	movwf	CCP_PWM_Start@ret^0,c
  1303                           
  1304                           ;MCAL_Layer/CCP1/hal_ccp.c: 415: }
  1305   002C96  EF71  F016         	goto	l5917
  1306   002C9A                     l5909:
  1307                           
  1308                           ;MCAL_Layer/CCP1/hal_ccp.c: 417: if(ccp_obj->ccp_module_type == CCP1_Module){
  1309   002C9A  C004  FFD9         	movff	CCP_PWM_Start@ccp_obj,fsr2l
  1310   002C9E  C005  FFDA         	movff	CCP_PWM_Start@ccp_obj+1,fsr2h
  1311   002CA2  50DF               	movf	indf2,w,c
  1312   002CA4  A4D8               	btfss	status,2,c
  1313   002CA6  EF57  F016         	goto	u5291
  1314   002CAA  EF59  F016         	goto	u5290
  1315   002CAE                     u5291:
  1316   002CAE  EF5F  F016         	goto	l5913
  1317   002CB2                     u5290:
  1318   002CB2                     
  1319                           ;MCAL_Layer/CCP1/hal_ccp.c: 418: CCP1CONbits.CCP1M = ((uint_8)0x0C);
  1320   002CB2  50BD               	movf	189,w,c	;volatile
  1321   002CB4  0BF0               	andlw	-16
  1322   002CB6  090C               	iorlw	12
  1323   002CB8  6EBD               	movwf	189,c	;volatile
  1324                           
  1325                           ;MCAL_Layer/CCP1/hal_ccp.c: 419: }
  1326   002CBA  EF71  F016         	goto	l5917
  1327   002CBE                     l5913:
  1328   002CBE  C004  FFD9         	movff	CCP_PWM_Start@ccp_obj,fsr2l
  1329   002CC2  C005  FFDA         	movff	CCP_PWM_Start@ccp_obj+1,fsr2h
  1330   002CC6  04DE               	decf	postinc2,w,c
  1331   002CC8  A4D8               	btfss	status,2,c
  1332   002CCA  EF69  F016         	goto	u5301
  1333   002CCE  EF6B  F016         	goto	u5300
  1334   002CD2                     u5301:
  1335   002CD2  EF71  F016         	goto	l1292
  1336   002CD6                     u5300:
  1337   002CD6                     
  1338                           ;MCAL_Layer/CCP1/hal_ccp.c: 421: CCP2CONbits.CCP2M = ((uint_8)0x0C);
  1339   002CD6  50BA               	movf	186,w,c	;volatile
  1340   002CD8  0BF0               	andlw	-16
  1341   002CDA  090C               	iorlw	12
  1342   002CDC  6EBA               	movwf	186,c	;volatile
  1343                           
  1344                           ;MCAL_Layer/CCP1/hal_ccp.c: 422: }
  1345   002CDE  EF71  F016         	goto	l5917
  1346   002CE2                     l1292:
  1347   002CE2                     l5917:
  1348                           
  1349                           ;MCAL_Layer/CCP1/hal_ccp.c: 425: return ret;
  1350   002CE2  5007               	movf	CCP_PWM_Start@ret^0,w,c
  1351   002CE4  0012               	return		;funcret
  1352   002CE6                     __end_of_CCP_PWM_Start:
  1353                           	callstack 0
  1354                           
  1355 ;; *************** function _CCP_PWM_Set_Duty *****************
  1356 ;; Defined at:
  1357 ;;		line 389 in file "MCAL_Layer/CCP1/hal_ccp.c"
  1358 ;; Parameters:    Size  Location     Type
  1359 ;;  ccp_obj         2   93[COMRAM] PTR const struct .
  1360 ;;		 -> ccp2_obj(14), ccp1_obj(14), 
  1361 ;;  duty            1   95[COMRAM] const unsigned char 
  1362 ;; Auto vars:     Size  Location     Type
  1363 ;;  l_duty_temp     2  103[COMRAM] unsigned short 
  1364 ;;  ret             1  102[COMRAM] unsigned char 
  1365 ;; Return value:  Size  Location     Type
  1366 ;;                  1    wreg      unsigned char 
  1367 ;; Registers used:
  1368 ;;		wreg, fsr2l, fsr2h, status,2, status,0, prodl, prodh, cstack
  1369 ;; Tracked objects:
  1370 ;;		On entry : 0/0
  1371 ;;		On exit  : 0/0
  1372 ;;		Unchanged: 0/0
  1373 ;; Data sizes:     COMRAM   BANK0   BANK1   BANK2   BANK3   BANK4   BANK5   BANK6   BANK7   BANK8   BANK9  BANK10  BANK1
      +1  BANK12  BANK13  BANK14  BANK15
  1374 ;;      Params:         3       0       0       0       0       0       0       0       0       0       0       0       
      +0       0       0       0       0
  1375 ;;      Locals:         7       0       0       0       0       0       0       0       0       0       0       0       
      +0       0       0       0       0
  1376 ;;      Temps:          2       0       0       0       0       0       0       0       0       0       0       0       
      +0       0       0       0       0
  1377 ;;      Totals:        12       0       0       0       0       0       0       0       0       0       0       0       
      +0       0       0       0       0
  1378 ;;Total ram usage:       12 bytes
  1379 ;; Hardware stack levels used: 1
  1380 ;; Hardware stack levels required when called: 4
  1381 ;; This function calls:
  1382 ;;		___fldiv
  1383 ;;		___flmul
  1384 ;;		___fltol
  1385 ;;		___xxtofl
  1386 ;; This function is called by:
  1387 ;;		_main
  1388 ;; This function uses a non-reentrant model
  1389 ;;
  1390                           
  1391                           	psect	text3
  1392   0025EA                     __ptext3:
  1393                           	callstack 0
  1394   0025EA                     _CCP_PWM_Set_Duty:
  1395                           	callstack 26
  1396   0025EA                     
  1397                           ;MCAL_Layer/CCP1/hal_ccp.c: 390: Std_ReturnType ret = (Std_ReturnType)0x01;
  1398   0025EA  0E01               	movlw	1
  1399   0025EC  6E67               	movwf	CCP_PWM_Set_Duty@ret^0,c
  1400   0025EE                     
  1401                           ;MCAL_Layer/CCP1/hal_ccp.c: 392: if(ccp_obj == ((void*)0)){
  1402   0025EE  505E               	movf	CCP_PWM_Set_Duty@ccp_obj^0,w,c
  1403   0025F0  105F               	iorwf	(CCP_PWM_Set_Duty@ccp_obj+1)^0,w,c
  1404   0025F2  A4D8               	btfss	status,2,c
  1405   0025F4  EFFE  F012         	goto	u8401
  1406   0025F8  EF00  F013         	goto	u8400
  1407   0025FC                     u8401:
  1408   0025FC  EF04  F013         	goto	l8161
  1409   002600                     u8400:
  1410   002600                     
  1411                           ;MCAL_Layer/CCP1/hal_ccp.c: 393: ret = (Std_ReturnType)0x00;
  1412   002600  0E00               	movlw	0
  1413   002602  6E67               	movwf	CCP_PWM_Set_Duty@ret^0,c
  1414                           
  1415                           ;MCAL_Layer/CCP1/hal_ccp.c: 394: }
  1416   002604  EFB3  F013         	goto	l8171
  1417   002608                     l8161:
  1418                           
  1419                           ;MCAL_Layer/CCP1/hal_ccp.c: 396: l_duty_temp = (uint_16)(((PR2 + 1) *(duty / 100.0)) * 4
      +                          );
  1420   002608  0E00               	movlw	0
  1421   00260A  6E16               	movwf	___fldiv@a^0,c
  1422   00260C  0E00               	movlw	0
  1423   00260E  6E17               	movwf	(___fldiv@a+1)^0,c
  1424   002610  0EC8               	movlw	200
  1425   002612  6E18               	movwf	(___fldiv@a+2)^0,c
  1426   002614  0E42               	movlw	66
  1427   002616  6E19               	movwf	(___fldiv@a+3)^0,c
  1428   002618  5060               	movf	CCP_PWM_Set_Duty@duty^0,w,c
  1429   00261A  6E04               	movwf	___xxtofl@val^0,c
  1430   00261C  6A05               	clrf	(___xxtofl@val+1)^0,c
  1431   00261E  6A06               	clrf	(___xxtofl@val+2)^0,c
  1432   002620  6A07               	clrf	(___xxtofl@val+3)^0,c
  1433   002622  0E01               	movlw	1
  1434   002624  EC4E  F011         	call	___xxtofl
  1435   002628  C004  F012         	movff	?___xxtofl,___fldiv@b
  1436   00262C  C005  F013         	movff	?___xxtofl+1,___fldiv@b+1
  1437   002630  C006  F014         	movff	?___xxtofl+2,___fldiv@b+2
  1438   002634  C007  F015         	movff	?___xxtofl+3,___fldiv@b+3
  1439   002638  EC79  F00C         	call	___fldiv	;wreg free
  1440   00263C  C012  F02F         	movff	?___fldiv,___flmul@a
  1441   002640  C013  F030         	movff	?___fldiv+1,___flmul@a+1
  1442   002644  C014  F031         	movff	?___fldiv+2,___flmul@a+2
  1443   002648  C015  F032         	movff	?___fldiv+3,___flmul@a+3
  1444   00264C  50CB               	movf	203,w,c	;volatile
  1445   00264E  6E61               	movwf	??_CCP_PWM_Set_Duty^0,c
  1446   002650  6A62               	clrf	(??_CCP_PWM_Set_Duty+1)^0,c
  1447   002652  0E01               	movlw	1
  1448   002654  2661               	addwf	??_CCP_PWM_Set_Duty^0,f,c
  1449   002656  0E00               	movlw	0
  1450   002658  2262               	addwfc	(??_CCP_PWM_Set_Duty+1)^0,f,c
  1451   00265A  C061  F004         	movff	??_CCP_PWM_Set_Duty,___xxtofl@val
  1452   00265E  C062  F005         	movff	??_CCP_PWM_Set_Duty+1,___xxtofl@val+1
  1453   002662  0E00               	movlw	0
  1454   002664  BE05               	btfsc	(___xxtofl@val+1)^0,7,c
  1455   002666  0EFF               	movlw	-1
  1456   002668  6E06               	movwf	(___xxtofl@val+2)^0,c
  1457   00266A  6E07               	movwf	(___xxtofl@val+3)^0,c
  1458   00266C  0E01               	movlw	1
  1459   00266E  EC4E  F011         	call	___xxtofl
  1460   002672  C004  F02B         	movff	?___xxtofl,___flmul@b
  1461   002676  C005  F02C         	movff	?___xxtofl+1,___flmul@b+1
  1462   00267A  C006  F02D         	movff	?___xxtofl+2,___flmul@b+2
  1463   00267E  C007  F02E         	movff	?___xxtofl+3,___flmul@b+3
  1464   002682  EC64  F00A         	call	___flmul	;wreg free
  1465   002686  C02B  F063         	movff	?___flmul,_CCP_PWM_Set_Duty$4188
  1466   00268A  C02C  F064         	movff	?___flmul+1,_CCP_PWM_Set_Duty$4188+1
  1467   00268E  C02D  F065         	movff	?___flmul+2,_CCP_PWM_Set_Duty$4188+2
  1468   002692  C02E  F066         	movff	?___flmul+3,_CCP_PWM_Set_Duty$4188+3
  1469                           
  1470                           ;MCAL_Layer/CCP1/hal_ccp.c: 396: l_duty_temp = (uint_16)(((PR2 + 1) *(duty / 100.0)) * 4
      +                          );
  1471   002696  0E00               	movlw	0
  1472   002698  6E2F               	movwf	___flmul@a^0,c
  1473   00269A  0E00               	movlw	0
  1474   00269C  6E30               	movwf	(___flmul@a+1)^0,c
  1475   00269E  0E80               	movlw	128
  1476   0026A0  6E31               	movwf	(___flmul@a+2)^0,c
  1477   0026A2  0E40               	movlw	64
  1478   0026A4  6E32               	movwf	(___flmul@a+3)^0,c
  1479   0026A6  C063  F02B         	movff	_CCP_PWM_Set_Duty$4188,___flmul@b
  1480   0026AA  C064  F02C         	movff	_CCP_PWM_Set_Duty$4188+1,___flmul@b+1
  1481   0026AE  C065  F02D         	movff	_CCP_PWM_Set_Duty$4188+2,___flmul@b+2
  1482   0026B2  C066  F02E         	movff	_CCP_PWM_Set_Duty$4188+3,___flmul@b+3
  1483   0026B6  EC64  F00A         	call	___flmul	;wreg free
  1484   0026BA  C02B  F054         	movff	?___flmul,___fltol@f1
  1485   0026BE  C02C  F055         	movff	?___flmul+1,___fltol@f1+1
  1486   0026C2  C02D  F056         	movff	?___flmul+2,___fltol@f1+2
  1487   0026C6  C02E  F057         	movff	?___flmul+3,___fltol@f1+3
  1488   0026CA  ECF5  F014         	call	___fltol	;wreg free
  1489   0026CE  C054  F068         	movff	?___fltol,CCP_PWM_Set_Duty@l_duty_temp
  1490   0026D2  C055  F069         	movff	?___fltol+1,CCP_PWM_Set_Duty@l_duty_temp+1
  1491   0026D6                     
  1492                           ;MCAL_Layer/CCP1/hal_ccp.c: 397: if(ccp_obj->ccp_module_type == CCP1_Module){
  1493   0026D6  C05E  FFD9         	movff	CCP_PWM_Set_Duty@ccp_obj,fsr2l
  1494   0026DA  C05F  FFDA         	movff	CCP_PWM_Set_Duty@ccp_obj+1,fsr2h
  1495   0026DE  50DF               	movf	indf2,w,c
  1496   0026E0  A4D8               	btfss	status,2,c
  1497   0026E2  EF75  F013         	goto	u8411
  1498   0026E6  EF77  F013         	goto	u8410
  1499   0026EA                     u8411:
  1500   0026EA  EF8F  F013         	goto	l8167
  1501   0026EE                     u8410:
  1502   0026EE                     
  1503                           ;MCAL_Layer/CCP1/hal_ccp.c: 398: CCP1CONbits.DC1B = (uint_8)(l_duty_temp & 0x0003);
  1504   0026EE  C068  F061         	movff	CCP_PWM_Set_Duty@l_duty_temp,??_CCP_PWM_Set_Duty
  1505   0026F2  0E03               	movlw	3
  1506   0026F4  1661               	andwf	??_CCP_PWM_Set_Duty^0,f,c
  1507   0026F6  3A61               	swapf	??_CCP_PWM_Set_Duty^0,f,c
  1508   0026F8  50BD               	movf	189,w,c	;volatile
  1509   0026FA  1861               	xorwf	??_CCP_PWM_Set_Duty^0,w,c
  1510   0026FC  0BCF               	andlw	-49
  1511   0026FE  1861               	xorwf	??_CCP_PWM_Set_Duty^0,w,c
  1512   002700  6EBD               	movwf	189,c	;volatile
  1513                           
  1514                           ;MCAL_Layer/CCP1/hal_ccp.c: 399: CCPR1L = (uint_8)(l_duty_temp >> 2);
  1515   002702  C068  F061         	movff	CCP_PWM_Set_Duty@l_duty_temp,??_CCP_PWM_Set_Duty
  1516   002706  C069  F062         	movff	CCP_PWM_Set_Duty@l_duty_temp+1,??_CCP_PWM_Set_Duty+1
  1517   00270A  90D8               	bcf	status,0,c
  1518   00270C  3262               	rrcf	(??_CCP_PWM_Set_Duty+1)^0,f,c
  1519   00270E  3261               	rrcf	??_CCP_PWM_Set_Duty^0,f,c
  1520   002710  90D8               	bcf	status,0,c
  1521   002712  3262               	rrcf	(??_CCP_PWM_Set_Duty+1)^0,f,c
  1522   002714  3261               	rrcf	??_CCP_PWM_Set_Duty^0,f,c
  1523   002716  5061               	movf	??_CCP_PWM_Set_Duty^0,w,c
  1524   002718  6EBE               	movwf	190,c	;volatile
  1525                           
  1526                           ;MCAL_Layer/CCP1/hal_ccp.c: 400: }
  1527   00271A  EFB3  F013         	goto	l8171
  1528   00271E                     l8167:
  1529   00271E  C05E  FFD9         	movff	CCP_PWM_Set_Duty@ccp_obj,fsr2l
  1530   002722  C05F  FFDA         	movff	CCP_PWM_Set_Duty@ccp_obj+1,fsr2h
  1531   002726  04DE               	decf	postinc2,w,c
  1532   002728  A4D8               	btfss	status,2,c
  1533   00272A  EF99  F013         	goto	u8421
  1534   00272E  EF9B  F013         	goto	u8420
  1535   002732                     u8421:
  1536   002732  EFB3  F013         	goto	l1283
  1537   002736                     u8420:
  1538   002736                     
  1539                           ;MCAL_Layer/CCP1/hal_ccp.c: 402: CCP2CONbits.DC2B = (uint_8)(l_duty_temp & 0x0003);
  1540   002736  C068  F061         	movff	CCP_PWM_Set_Duty@l_duty_temp,??_CCP_PWM_Set_Duty
  1541   00273A  0E03               	movlw	3
  1542   00273C  1661               	andwf	??_CCP_PWM_Set_Duty^0,f,c
  1543   00273E  3A61               	swapf	??_CCP_PWM_Set_Duty^0,f,c
  1544   002740  50BA               	movf	186,w,c	;volatile
  1545   002742  1861               	xorwf	??_CCP_PWM_Set_Duty^0,w,c
  1546   002744  0BCF               	andlw	-49
  1547   002746  1861               	xorwf	??_CCP_PWM_Set_Duty^0,w,c
  1548   002748  6EBA               	movwf	186,c	;volatile
  1549                           
  1550                           ;MCAL_Layer/CCP1/hal_ccp.c: 403: CCPR2L = (uint_8)(l_duty_temp >> 2);
  1551   00274A  C068  F061         	movff	CCP_PWM_Set_Duty@l_duty_temp,??_CCP_PWM_Set_Duty
  1552   00274E  C069  F062         	movff	CCP_PWM_Set_Duty@l_duty_temp+1,??_CCP_PWM_Set_Duty+1
  1553   002752  90D8               	bcf	status,0,c
  1554   002754  3262               	rrcf	(??_CCP_PWM_Set_Duty+1)^0,f,c
  1555   002756  3261               	rrcf	??_CCP_PWM_Set_Duty^0,f,c
  1556   002758  90D8               	bcf	status,0,c
  1557   00275A  3262               	rrcf	(??_CCP_PWM_Set_Duty+1)^0,f,c
  1558   00275C  3261               	rrcf	??_CCP_PWM_Set_Duty^0,f,c
  1559   00275E  5061               	movf	??_CCP_PWM_Set_Duty^0,w,c
  1560   002760  6EBB               	movwf	187,c	;volatile
  1561                           
  1562                           ;MCAL_Layer/CCP1/hal_ccp.c: 404: }
  1563   002762  EFB3  F013         	goto	l8171
  1564   002766                     l1283:
  1565   002766                     l8171:
  1566                           
  1567                           ;MCAL_Layer/CCP1/hal_ccp.c: 407:  return ret;
  1568   002766  5067               	movf	CCP_PWM_Set_Duty@ret^0,w,c
  1569   002768  0012               	return		;funcret
  1570   00276A                     __end_of_CCP_PWM_Set_Duty:
  1571                           	callstack 0
  1572                           
  1573 ;; *************** function _CCP_PWM_Init *****************
  1574 ;; Defined at:
  1575 ;;		line 288 in file "MCAL_Layer/CCP1/hal_ccp.c"
  1576 ;; Parameters:    Size  Location     Type
  1577 ;;  ccp_obj         2   93[COMRAM] PTR const struct .
  1578 ;;		 -> ccp2_obj(14), ccp1_obj(14), 
  1579 ;; Auto vars:     Size  Location     Type
  1580 ;;  ret             1    8[BANK1 ] unsigned char 
  1581 ;; Return value:  Size  Location     Type
  1582 ;;                  1    wreg      unsigned char 
  1583 ;; Registers used:
  1584 ;;		wreg, fsr2l, fsr2h, status,2, status,0, prodl, prodh, cstack
  1585 ;; Tracked objects:
  1586 ;;		On entry : 0/0
  1587 ;;		On exit  : 0/0
  1588 ;;		Unchanged: 0/0
  1589 ;; Data sizes:     COMRAM   BANK0   BANK1   BANK2   BANK3   BANK4   BANK5   BANK6   BANK7   BANK8   BANK9  BANK10  BANK1
      +1  BANK12  BANK13  BANK14  BANK15
  1590 ;;      Params:         2       0       0       0       0       0       0       0       0       0       0       0       
      +0       0       0       0       0
  1591 ;;      Locals:         0       0       9       0       0       0       0       0       0       0       0       0       
      +0       0       0       0       0
  1592 ;;      Temps:          2       0       0       0       0       0       0       0       0       0       0       0       
      +0       0       0       0       0
  1593 ;;      Totals:         4       0       9       0       0       0       0       0       0       0       0       0       
      +0       0       0       0       0
  1594 ;;Total ram usage:       13 bytes
  1595 ;; Hardware stack levels used: 1
  1596 ;; Hardware stack levels required when called: 5
  1597 ;; This function calls:
  1598 ;;		___fladd
  1599 ;;		___fldiv
  1600 ;;		___flmul
  1601 ;;		___fltol
  1602 ;;		___xxtofl
  1603 ;;		_gpio_pin_intialize
  1604 ;; This function is called by:
  1605 ;;		_main
  1606 ;; This function uses a non-reentrant model
  1607 ;;
  1608                           
  1609                           	psect	text4
  1610   002002                     __ptext4:
  1611                           	callstack 0
  1612   002002                     _CCP_PWM_Init:
  1613                           	callstack 25
  1614   002002                     
  1615                           ;MCAL_Layer/CCP1/hal_ccp.c: 290: if(ccp_obj == ((void*)0)){
  1616   002002  505E               	movf	CCP_PWM_Init@ccp_obj^0,w,c
  1617   002004  105F               	iorwf	(CCP_PWM_Init@ccp_obj+1)^0,w,c
  1618   002006  A4D8               	btfss	status,2,c
  1619   002008  EF08  F010         	goto	u8321
  1620   00200C  EF0A  F010         	goto	u8320
  1621   002010                     u8321:
  1622   002010  EF0F  F010         	goto	l8115
  1623   002014                     u8320:
  1624   002014                     
  1625                           ;MCAL_Layer/CCP1/hal_ccp.c: 291: ret = (Std_ReturnType)0x00;
  1626   002014  0E00               	movlw	0
  1627   002016  0101               	movlb	1	; () banked
  1628   002018  6F38               	movwf	CCP_PWM_Init@ret& (0+255),b
  1629                           
  1630                           ;MCAL_Layer/CCP1/hal_ccp.c: 292: }
  1631   00201A  EF4C  F011         	goto	l8151
  1632   00201E                     l8115:
  1633                           
  1634                           ;MCAL_Layer/CCP1/hal_ccp.c: 294:     (CCP1CONbits.CCP1M = ((uint_8)0x00));
  1635   00201E  0EF0               	movlw	-16
  1636   002020  16BD               	andwf	189,f,c	;volatile
  1637   002022                     
  1638                           ;MCAL_Layer/CCP1/hal_ccp.c: 295: if(ccp_obj->ccp_mode == CCP_PWM_MODE_SELECTED){
  1639   002022  EE20 F001          	lfsr	2,1
  1640   002026  505E               	movf	CCP_PWM_Init@ccp_obj^0,w,c
  1641   002028  26D9               	addwf	fsr2l,f,c
  1642   00202A  505F               	movf	(CCP_PWM_Init@ccp_obj+1)^0,w,c
  1643   00202C  22DA               	addwfc	fsr2h,f,c
  1644   00202E  0E02               	movlw	2
  1645   002030  18DE               	xorwf	postinc2,w,c
  1646   002032  A4D8               	btfss	status,2,c
  1647   002034  EF1E  F010         	goto	u8331
  1648   002038  EF20  F010         	goto	u8330
  1649   00203C                     u8331:
  1650   00203C  EF62  F010         	goto	l8131
  1651   002040                     u8330:
  1652   002040                     
  1653                           ;MCAL_Layer/CCP1/hal_ccp.c: 296:      if(ccp_obj->ccp_module_type == CCP1_Module){
  1654   002040  C05E  FFD9         	movff	CCP_PWM_Init@ccp_obj,fsr2l
  1655   002044  C05F  FFDA         	movff	CCP_PWM_Init@ccp_obj+1,fsr2h
  1656   002048  50DF               	movf	indf2,w,c
  1657   00204A  A4D8               	btfss	status,2,c
  1658   00204C  EF2A  F010         	goto	u8341
  1659   002050  EF2C  F010         	goto	u8340
  1660   002054                     u8341:
  1661   002054  EF41  F010         	goto	l8125
  1662   002058                     u8340:
  1663   002058                     
  1664                           ;MCAL_Layer/CCP1/hal_ccp.c: 297:             if(ccp_obj->ccp_mode_variant == ((uint_8)0x
      +                          0C)){
  1665   002058  EE20 F002          	lfsr	2,2
  1666   00205C  505E               	movf	CCP_PWM_Init@ccp_obj^0,w,c
  1667   00205E  26D9               	addwf	fsr2l,f,c
  1668   002060  505F               	movf	(CCP_PWM_Init@ccp_obj+1)^0,w,c
  1669   002062  22DA               	addwfc	fsr2h,f,c
  1670   002064  0E0C               	movlw	12
  1671   002066  18DE               	xorwf	postinc2,w,c
  1672   002068  A4D8               	btfss	status,2,c
  1673   00206A  EF39  F010         	goto	u8351
  1674   00206E  EF3B  F010         	goto	u8350
  1675   002072                     u8351:
  1676   002072  EF62  F010         	goto	l1261
  1677   002076                     u8350:
  1678   002076                     
  1679                           ;MCAL_Layer/CCP1/hal_ccp.c: 298:                 (CCP1CONbits.CCP1M = ((uint_8)0x0C));
  1680   002076  50BD               	movf	189,w,c	;volatile
  1681   002078  0BF0               	andlw	-16
  1682   00207A  090C               	iorlw	12
  1683   00207C  6EBD               	movwf	189,c	;volatile
  1684                           
  1685                           ;MCAL_Layer/CCP1/hal_ccp.c: 299:             }
  1686   00207E  EF62  F010         	goto	l8131
  1687   002082                     l8125:
  1688   002082  C05E  FFD9         	movff	CCP_PWM_Init@ccp_obj,fsr2l
  1689   002086  C05F  FFDA         	movff	CCP_PWM_Init@ccp_obj+1,fsr2h
  1690   00208A  04DE               	decf	postinc2,w,c
  1691   00208C  A4D8               	btfss	status,2,c
  1692   00208E  EF4B  F010         	goto	u8361
  1693   002092  EF4D  F010         	goto	u8360
  1694   002096                     u8361:
  1695   002096  EF62  F010         	goto	l1261
  1696   00209A                     u8360:
  1697   00209A                     
  1698                           ;MCAL_Layer/CCP1/hal_ccp.c: 303:      if(ccp_obj->ccp_mode_variant == ((uint_8)0x0C)){
  1699   00209A  EE20 F002          	lfsr	2,2
  1700   00209E  505E               	movf	CCP_PWM_Init@ccp_obj^0,w,c
  1701   0020A0  26D9               	addwf	fsr2l,f,c
  1702   0020A2  505F               	movf	(CCP_PWM_Init@ccp_obj+1)^0,w,c
  1703   0020A4  22DA               	addwfc	fsr2h,f,c
  1704   0020A6  0E0C               	movlw	12
  1705   0020A8  18DE               	xorwf	postinc2,w,c
  1706   0020AA  A4D8               	btfss	status,2,c
  1707   0020AC  EF5A  F010         	goto	u8371
  1708   0020B0  EF5C  F010         	goto	u8370
  1709   0020B4                     u8371:
  1710   0020B4  EF62  F010         	goto	l8131
  1711   0020B8                     u8370:
  1712   0020B8                     
  1713                           ;MCAL_Layer/CCP1/hal_ccp.c: 304:                (CCP2CONbits.CCP2M = ((uint_8)0x0C));
  1714   0020B8  50BA               	movf	186,w,c	;volatile
  1715   0020BA  0BF0               	andlw	-16
  1716   0020BC  090C               	iorlw	12
  1717   0020BE  6EBA               	movwf	186,c	;volatile
  1718                           
  1719                           ;MCAL_Layer/CCP1/hal_ccp.c: 305:             }
  1720   0020C0  EF62  F010         	goto	l8131
  1721   0020C4                     l1261:
  1722   0020C4                     l8131:
  1723                           
  1724                           ;MCAL_Layer/CCP1/hal_ccp.c: 311: PR2 = (uint_8)((4000000UL/(ccp_obj->PWM_Freq * 4.0 * cc
      +                          p_obj->timer2_prescaler_value * ccp_obj->timer2_postscaler_value))-1);
  1725   0020C4  0E00               	movlw	0
  1726   0020C6  6E2F               	movwf	___flmul@a^0,c
  1727   0020C8  0E00               	movlw	0
  1728   0020CA  6E30               	movwf	(___flmul@a+1)^0,c
  1729   0020CC  0E80               	movlw	128
  1730   0020CE  6E31               	movwf	(___flmul@a+2)^0,c
  1731   0020D0  0E40               	movlw	64
  1732   0020D2  6E32               	movwf	(___flmul@a+3)^0,c
  1733   0020D4  EE20 F006          	lfsr	2,6
  1734   0020D8  505E               	movf	CCP_PWM_Init@ccp_obj^0,w,c
  1735   0020DA  26D9               	addwf	fsr2l,f,c
  1736   0020DC  505F               	movf	(CCP_PWM_Init@ccp_obj+1)^0,w,c
  1737   0020DE  22DA               	addwfc	fsr2h,f,c
  1738   0020E0  CFDE F060          	movff	postinc2,??_CCP_PWM_Init
  1739   0020E4  CFDD F061          	movff	postdec2,??_CCP_PWM_Init+1
  1740   0020E8  C060  F004         	movff	??_CCP_PWM_Init,___xxtofl@val
  1741   0020EC  C061  F005         	movff	??_CCP_PWM_Init+1,___xxtofl@val+1
  1742   0020F0  6A06               	clrf	(___xxtofl@val+2)^0,c
  1743   0020F2  6A07               	clrf	(___xxtofl@val+3)^0,c
  1744   0020F4  0E00               	movlw	0
  1745   0020F6  EC4E  F011         	call	___xxtofl
  1746   0020FA  C004  F02B         	movff	?___xxtofl,___flmul@b
  1747   0020FE  C005  F02C         	movff	?___xxtofl+1,___flmul@b+1
  1748   002102  C006  F02D         	movff	?___xxtofl+2,___flmul@b+2
  1749   002106  C007  F02E         	movff	?___xxtofl+3,___flmul@b+3
  1750   00210A  EC64  F00A         	call	___flmul	;wreg free
  1751   00210E  C02B  F130         	movff	?___flmul,_CCP_PWM_Init$4354
  1752   002112  C02C  F131         	movff	?___flmul+1,_CCP_PWM_Init$4354+1
  1753   002116  C02D  F132         	movff	?___flmul+2,_CCP_PWM_Init$4354+2
  1754   00211A  C02E  F133         	movff	?___flmul+3,_CCP_PWM_Init$4354+3
  1755                           
  1756                           ;MCAL_Layer/CCP1/hal_ccp.c: 311: PR2 = (uint_8)((4000000UL/(ccp_obj->PWM_Freq * 4.0 * cc
      +                          p_obj->timer2_prescaler_value * ccp_obj->timer2_postscaler_value))-1);
  1757   00211E  EE20 F005          	lfsr	2,5
  1758   002122  505E               	movf	CCP_PWM_Init@ccp_obj^0,w,c
  1759   002124  26D9               	addwf	fsr2l,f,c
  1760   002126  505F               	movf	(CCP_PWM_Init@ccp_obj+1)^0,w,c
  1761   002128  22DA               	addwfc	fsr2h,f,c
  1762   00212A  50DF               	movf	223,w,c
  1763   00212C  0B03               	andlw	3
  1764   00212E  6E60               	movwf	??_CCP_PWM_Init^0,c
  1765   002130  5060               	movf	??_CCP_PWM_Init^0,w,c
  1766   002132  6E04               	movwf	___xxtofl@val^0,c
  1767   002134  6A05               	clrf	(___xxtofl@val+1)^0,c
  1768   002136  6A06               	clrf	(___xxtofl@val+2)^0,c
  1769   002138  6A07               	clrf	(___xxtofl@val+3)^0,c
  1770   00213A  0E01               	movlw	1
  1771   00213C  EC4E  F011         	call	___xxtofl
  1772   002140  C004  F02F         	movff	?___xxtofl,___flmul@a
  1773   002144  C005  F030         	movff	?___xxtofl+1,___flmul@a+1
  1774   002148  C006  F031         	movff	?___xxtofl+2,___flmul@a+2
  1775   00214C  C007  F032         	movff	?___xxtofl+3,___flmul@a+3
  1776   002150  C130  F02B         	movff	_CCP_PWM_Init$4354,___flmul@b
  1777   002154  C131  F02C         	movff	_CCP_PWM_Init$4354+1,___flmul@b+1
  1778   002158  C132  F02D         	movff	_CCP_PWM_Init$4354+2,___flmul@b+2
  1779   00215C  C133  F02E         	movff	_CCP_PWM_Init$4354+3,___flmul@b+3
  1780   002160  EC64  F00A         	call	___flmul	;wreg free
  1781   002164  C02B  F134         	movff	?___flmul,_CCP_PWM_Init$4355
  1782   002168  C02C  F135         	movff	?___flmul+1,_CCP_PWM_Init$4355+1
  1783   00216C  C02D  F136         	movff	?___flmul+2,_CCP_PWM_Init$4355+2
  1784   002170  C02E  F137         	movff	?___flmul+3,_CCP_PWM_Init$4355+3
  1785                           
  1786                           ;MCAL_Layer/CCP1/hal_ccp.c: 311: PR2 = (uint_8)((4000000UL/(ccp_obj->PWM_Freq * 4.0 * cc
      +                          p_obj->timer2_prescaler_value * ccp_obj->timer2_postscaler_value))-1);
  1787   002174  0E00               	movlw	0
  1788   002176  6E48               	movwf	___fladd@a^0,c
  1789   002178  0E00               	movlw	0
  1790   00217A  6E49               	movwf	(___fladd@a+1)^0,c
  1791   00217C  0E80               	movlw	128
  1792   00217E  6E4A               	movwf	(___fladd@a+2)^0,c
  1793   002180  0EBF               	movlw	191
  1794   002182  6E4B               	movwf	(___fladd@a+3)^0,c
  1795   002184  EE20 F005          	lfsr	2,5
  1796   002188  505E               	movf	CCP_PWM_Init@ccp_obj^0,w,c
  1797   00218A  26D9               	addwf	fsr2l,f,c
  1798   00218C  505F               	movf	(CCP_PWM_Init@ccp_obj+1)^0,w,c
  1799   00218E  22DA               	addwfc	fsr2h,f,c
  1800   002190  30DF               	rrcf	223,w,c
  1801   002192  32E8               	rrcf	wreg,f,c
  1802   002194  0B03               	andlw	3
  1803   002196  6E60               	movwf	??_CCP_PWM_Init^0,c
  1804   002198  5060               	movf	??_CCP_PWM_Init^0,w,c
  1805   00219A  6E04               	movwf	___xxtofl@val^0,c
  1806   00219C  6A05               	clrf	(___xxtofl@val+1)^0,c
  1807   00219E  6A06               	clrf	(___xxtofl@val+2)^0,c
  1808   0021A0  6A07               	clrf	(___xxtofl@val+3)^0,c
  1809   0021A2  0E01               	movlw	1
  1810   0021A4  EC4E  F011         	call	___xxtofl
  1811   0021A8  C004  F02F         	movff	?___xxtofl,___flmul@a
  1812   0021AC  C005  F030         	movff	?___xxtofl+1,___flmul@a+1
  1813   0021B0  C006  F031         	movff	?___xxtofl+2,___flmul@a+2
  1814   0021B4  C007  F032         	movff	?___xxtofl+3,___flmul@a+3
  1815   0021B8  C134  F02B         	movff	_CCP_PWM_Init$4355,___flmul@b
  1816   0021BC  C135  F02C         	movff	_CCP_PWM_Init$4355+1,___flmul@b+1
  1817   0021C0  C136  F02D         	movff	_CCP_PWM_Init$4355+2,___flmul@b+2
  1818   0021C4  C137  F02E         	movff	_CCP_PWM_Init$4355+3,___flmul@b+3
  1819   0021C8  EC64  F00A         	call	___flmul	;wreg free
  1820   0021CC  C02B  F016         	movff	?___flmul,___fldiv@a
  1821   0021D0  C02C  F017         	movff	?___flmul+1,___fldiv@a+1
  1822   0021D4  C02D  F018         	movff	?___flmul+2,___fldiv@a+2
  1823   0021D8  C02E  F019         	movff	?___flmul+3,___fldiv@a+3
  1824   0021DC  0E00               	movlw	0
  1825   0021DE  6E12               	movwf	___fldiv@b^0,c
  1826   0021E0  0E24               	movlw	36
  1827   0021E2  6E13               	movwf	(___fldiv@b+1)^0,c
  1828   0021E4  0E74               	movlw	116
  1829   0021E6  6E14               	movwf	(___fldiv@b+2)^0,c
  1830   0021E8  0E4A               	movlw	74
  1831   0021EA  6E15               	movwf	(___fldiv@b+3)^0,c
  1832   0021EC  EC79  F00C         	call	___fldiv	;wreg free
  1833   0021F0  C012  F044         	movff	?___fldiv,___fladd@b
  1834   0021F4  C013  F045         	movff	?___fldiv+1,___fladd@b+1
  1835   0021F8  C014  F046         	movff	?___fldiv+2,___fladd@b+2
  1836   0021FC  C015  F047         	movff	?___fldiv+3,___fladd@b+3
  1837   002200  EC04  F008         	call	___fladd	;wreg free
  1838   002204  C044  F054         	movff	?___fladd,___fltol@f1
  1839   002208  C045  F055         	movff	?___fladd+1,___fltol@f1+1
  1840   00220C  C046  F056         	movff	?___fladd+2,___fltol@f1+2
  1841   002210  C047  F057         	movff	?___fladd+3,___fltol@f1+3
  1842   002214  ECF5  F014         	call	___fltol	;wreg free
  1843   002218  5054               	movf	?___fltol^0,w,c
  1844   00221A  6ECB               	movwf	203,c	;volatile
  1845                           
  1846                           ;MCAL_Layer/CCP1/hal_ccp.c: 313:          ret = gpio_pin_intialize(&(ccp_obj->ccp_pin));
  1847   00221C  0E03               	movlw	3
  1848   00221E  245E               	addwf	CCP_PWM_Init@ccp_obj^0,w,c
  1849   002220  6E0E               	movwf	gpio_pin_intialize@pin_config^0,c
  1850   002222  0E00               	movlw	0
  1851   002224  205F               	addwfc	(CCP_PWM_Init@ccp_obj+1)^0,w,c
  1852   002226  6E0F               	movwf	(gpio_pin_intialize@pin_config+1)^0,c
  1853   002228  EC08  F016         	call	_gpio_pin_intialize	;wreg free
  1854   00222C  0101               	movlb	1	; () banked
  1855   00222E  6F38               	movwf	CCP_PWM_Init@ret& (0+255),b
  1856   002230                     
  1857                           ; BSR set to: 1
  1858                           ;MCAL_Layer/CCP1/hal_ccp.c: 314:  if(ccp_obj->ccp_module_type == CCP1_Module){
  1859   002230  C05E  FFD9         	movff	CCP_PWM_Init@ccp_obj,fsr2l
  1860   002234  C05F  FFDA         	movff	CCP_PWM_Init@ccp_obj+1,fsr2h
  1861   002238  50DF               	movf	indf2,w,c
  1862   00223A  A4D8               	btfss	status,2,c
  1863   00223C  EF22  F011         	goto	u8381
  1864   002240  EF24  F011         	goto	u8380
  1865   002244                     u8381:
  1866   002244  EF32  F011         	goto	l1267
  1867   002248                     u8380:
  1868   002248                     
  1869                           ; BSR set to: 1
  1870                           ;MCAL_Layer/CCP1/hal_ccp.c: 316: (PIE1bits.CCP1IE = 1);
  1871   002248  849D               	bsf	157,2,c	;volatile
  1872                           
  1873                           ;MCAL_Layer/CCP1/hal_ccp.c: 317: (PIR1bits.CCP1IF = 0);
  1874   00224A  949E               	bcf	158,2,c	;volatile
  1875   00224C                     
  1876                           ; BSR set to: 1
  1877                           ;MCAL_Layer/CCP1/hal_ccp.c: 318: CCP1_Interrupt_Hundeler = ccp_obj->CCP1_Interrupt_Hunde
      +                          ler;
  1878   00224C  EE20 F008          	lfsr	2,8
  1879   002250  505E               	movf	CCP_PWM_Init@ccp_obj^0,w,c
  1880   002252  26D9               	addwf	fsr2l,f,c
  1881   002254  505F               	movf	(CCP_PWM_Init@ccp_obj+1)^0,w,c
  1882   002256  22DA               	addwfc	fsr2h,f,c
  1883   002258  CFDE F08C          	movff	postinc2,_CCP1_Interrupt_Hundeler
  1884   00225C  CFDD F08D          	movff	postdec2,_CCP1_Interrupt_Hundeler+1
  1885   002260                     
  1886                           ; BSR set to: 1
  1887                           ;MCAL_Layer/CCP1/hal_ccp.c: 331:   (INTCONbits.GIE = 1);
  1888   002260  8EF2               	bsf	242,7,c	;volatile
  1889   002262                     
  1890                           ; BSR set to: 1
  1891                           ;MCAL_Layer/CCP1/hal_ccp.c: 332:   (INTCONbits.PEIE = 0);
  1892   002262  9CF2               	bcf	242,6,c	;volatile
  1893   002264                     l1267:
  1894                           
  1895                           ; BSR set to: 1
  1896                           ;MCAL_Layer/CCP1/hal_ccp.c: 337:  if(ccp_obj->ccp_module_type == CCP2_Module){
  1897   002264  C05E  FFD9         	movff	CCP_PWM_Init@ccp_obj,fsr2l
  1898   002268  C05F  FFDA         	movff	CCP_PWM_Init@ccp_obj+1,fsr2h
  1899   00226C  04DE               	decf	postinc2,w,c
  1900   00226E  A4D8               	btfss	status,2,c
  1901   002270  EF3C  F011         	goto	u8391
  1902   002274  EF3E  F011         	goto	u8390
  1903   002278                     u8391:
  1904   002278  EF4C  F011         	goto	l8151
  1905   00227C                     u8390:
  1906   00227C                     
  1907                           ; BSR set to: 1
  1908                           ;MCAL_Layer/CCP1/hal_ccp.c: 339: (PIE2bits.CCP2IE = 1);
  1909   00227C  80A0               	bsf	160,0,c	;volatile
  1910                           
  1911                           ;MCAL_Layer/CCP1/hal_ccp.c: 340: (PIR2bits.CCP2IF = 0);
  1912   00227E  90A1               	bcf	161,0,c	;volatile
  1913   002280                     
  1914                           ; BSR set to: 1
  1915                           ;MCAL_Layer/CCP1/hal_ccp.c: 341: CCP2_Interrupt_Hundeler = ccp_obj->CCP2_Interrupt_Hunde
      +                          ler;
  1916   002280  EE20 F00B          	lfsr	2,11
  1917   002284  505E               	movf	CCP_PWM_Init@ccp_obj^0,w,c
  1918   002286  26D9               	addwf	fsr2l,f,c
  1919   002288  505F               	movf	(CCP_PWM_Init@ccp_obj+1)^0,w,c
  1920   00228A  22DA               	addwfc	fsr2h,f,c
  1921   00228C  CFDE F08A          	movff	postinc2,_CCP2_Interrupt_Hundeler
  1922   002290  CFDD F08B          	movff	postdec2,_CCP2_Interrupt_Hundeler+1
  1923   002294                     
  1924                           ; BSR set to: 1
  1925                           ;MCAL_Layer/CCP1/hal_ccp.c: 354:   (INTCONbits.GIE = 1);
  1926   002294  8EF2               	bsf	242,7,c	;volatile
  1927   002296                     
  1928                           ; BSR set to: 1
  1929                           ;MCAL_Layer/CCP1/hal_ccp.c: 355:   (INTCONbits.PEIE = 0);
  1930   002296  9CF2               	bcf	242,6,c	;volatile
  1931   002298                     l8151:
  1932                           
  1933                           ; BSR set to: 1
  1934                           ;MCAL_Layer/CCP1/hal_ccp.c: 362: return ret;
  1935   002298  5138               	movf	CCP_PWM_Init@ret& (0+255),w,b
  1936   00229A                     
  1937                           ; BSR set to: 1
  1938   00229A  0012               	return		;funcret
  1939   00229C                     __end_of_CCP_PWM_Init:
  1940                           	callstack 0
  1941                           
  1942 ;; *************** function _gpio_pin_intialize *****************
  1943 ;; Defined at:
  1944 ;;		line 127 in file "MCAL_Layer/GPIO/hal_gpio.c"
  1945 ;; Parameters:    Size  Location     Type
  1946 ;;  pin_config      2   13[COMRAM] PTR const struct .
  1947 ;;		 -> ccp2_obj(14), ccp1_obj(14), lcd_1.lcd_data(4), lcd_1(6), 
  1948 ;;		 -> Relay_Initialize@pin_obj(1), led_initialize@pin_obj(1), 
  1949 ;; Auto vars:     Size  Location     Type
  1950 ;;  ret             1   16[COMRAM] unsigned char 
  1951 ;; Return value:  Size  Location     Type
  1952 ;;                  1    wreg      unsigned char 
  1953 ;; Registers used:
  1954 ;;		wreg, fsr2l, fsr2h, status,2, status,0, prodl, prodh, cstack
  1955 ;; Tracked objects:
  1956 ;;		On entry : 0/0
  1957 ;;		On exit  : 0/0
  1958 ;;		Unchanged: 0/0
  1959 ;; Data sizes:     COMRAM   BANK0   BANK1   BANK2   BANK3   BANK4   BANK5   BANK6   BANK7   BANK8   BANK9  BANK10  BANK1
      +1  BANK12  BANK13  BANK14  BANK15
  1960 ;;      Params:         2       0       0       0       0       0       0       0       0       0       0       0       
      +0       0       0       0       0
  1961 ;;      Locals:         1       0       0       0       0       0       0       0       0       0       0       0       
      +0       0       0       0       0
  1962 ;;      Temps:          1       0       0       0       0       0       0       0       0       0       0       0       
      +0       0       0       0       0
  1963 ;;      Totals:         4       0       0       0       0       0       0       0       0       0       0       0       
      +0       0       0       0       0
  1964 ;;Total ram usage:        4 bytes
  1965 ;; Hardware stack levels used: 1
  1966 ;; Hardware stack levels required when called: 4
  1967 ;; This function calls:
  1968 ;;		_gpio_pin_direction_intialize
  1969 ;;		_gpio_pin_write_logic
  1970 ;; This function is called by:
  1971 ;;		_CCP_PWM_Init
  1972 ;;		_segment_initialize
  1973 ;;		_keypade_initialize
  1974 ;;		_lcd_4_bit_initialize
  1975 ;;		_lcd_8_bit_initialize
  1976 ;;		_led_initialize
  1977 ;;		_DC_Motor_Intialize
  1978 ;;		_Relay_Initialize
  1979 ;;		_CCP1_CAPTURE_Init
  1980 ;;		_CCP1_COMPARE_Init
  1981 ;; This function uses a non-reentrant model
  1982 ;;
  1983                           
  1984                           	psect	text5
  1985   002C10                     __ptext5:
  1986                           	callstack 0
  1987   002C10                     _gpio_pin_intialize:
  1988                           	callstack 25
  1989   002C10                     
  1990                           ;MCAL_Layer/GPIO/hal_gpio.c: 129:  if(pin_config == ((void*)0) || pin_config->pin > 8 -1
      +                          ){
  1991   002C10  500E               	movf	gpio_pin_intialize@pin_config^0,w,c
  1992   002C12  100F               	iorwf	(gpio_pin_intialize@pin_config+1)^0,w,c
  1993   002C14  B4D8               	btfsc	status,2,c
  1994   002C16  EF0F  F016         	goto	u7181
  1995   002C1A  EF11  F016         	goto	u7180
  1996   002C1E                     u7181:
  1997   002C1E  EF22  F016         	goto	l7371
  1998   002C22                     u7180:
  1999   002C22  C00E  FFD9         	movff	gpio_pin_intialize@pin_config,fsr2l
  2000   002C26  C00F  FFDA         	movff	gpio_pin_intialize@pin_config+1,fsr2h
  2001   002C2A  30DF               	rrcf	223,w,c
  2002   002C2C  32E8               	rrcf	wreg,f,c
  2003   002C2E  32E8               	rrcf	wreg,f,c
  2004   002C30  0B07               	andlw	7
  2005   002C32  6E10               	movwf	??_gpio_pin_intialize^0,c
  2006   002C34  0E07               	movlw	7
  2007   002C36  6410               	cpfsgt	??_gpio_pin_intialize^0,c
  2008   002C38  EF20  F016         	goto	u7191
  2009   002C3C  EF22  F016         	goto	u7190
  2010   002C40                     u7191:
  2011   002C40  EF26  F016         	goto	l7373
  2012   002C44                     u7190:
  2013   002C44                     l7371:
  2014                           
  2015                           ;MCAL_Layer/GPIO/hal_gpio.c: 130:      ret = (Std_ReturnType)0x00;
  2016   002C44  0E00               	movlw	0
  2017   002C46  6E11               	movwf	gpio_pin_intialize@ret^0,c
  2018                           
  2019                           ;MCAL_Layer/GPIO/hal_gpio.c: 131:  }
  2020   002C48  EF3C  F016         	goto	l7375
  2021   002C4C                     l7373:
  2022                           
  2023                           ;MCAL_Layer/GPIO/hal_gpio.c: 133:      ret = gpio_pin_direction_intialize(pin_config);
  2024   002C4C  C00E  F004         	movff	gpio_pin_intialize@pin_config,gpio_pin_direction_intialize@pin_config
  2025   002C50  C00F  F005         	movff	gpio_pin_intialize@pin_config+1,gpio_pin_direction_intialize@pin_config+1
  2026   002C54  ECB5  F013         	call	_gpio_pin_direction_intialize	;wreg free
  2027   002C58  6E11               	movwf	gpio_pin_intialize@ret^0,c
  2028                           
  2029                           ;MCAL_Layer/GPIO/hal_gpio.c: 134:      ret = gpio_pin_write_logic(pin_config, pin_config
      +                          ->logic);
  2030   002C5A  C00E  F004         	movff	gpio_pin_intialize@pin_config,gpio_pin_write_logic@pin_config
  2031   002C5E  C00F  F005         	movff	gpio_pin_intialize@pin_config+1,gpio_pin_write_logic@pin_config+1
  2032   002C62  C00E  FFD9         	movff	gpio_pin_intialize@pin_config,fsr2l
  2033   002C66  C00F  FFDA         	movff	gpio_pin_intialize@pin_config+1,fsr2h
  2034   002C6A  0E00               	movlw	0
  2035   002C6C  BEDF               	btfsc	indf2,7,c
  2036   002C6E  0E01               	movlw	1
  2037   002C70  6E06               	movwf	gpio_pin_write_logic@logic^0,c
  2038   002C72  EC57  F014         	call	_gpio_pin_write_logic	;wreg free
  2039   002C76  6E11               	movwf	gpio_pin_intialize@ret^0,c
  2040   002C78                     l7375:
  2041                           
  2042                           ;MCAL_Layer/GPIO/hal_gpio.c: 136:   return ret;
  2043   002C78  5011               	movf	gpio_pin_intialize@ret^0,w,c
  2044   002C7A  0012               	return		;funcret
  2045   002C7C                     __end_of_gpio_pin_intialize:
  2046                           	callstack 0
  2047                           
  2048 ;; *************** function _gpio_pin_write_logic *****************
  2049 ;; Defined at:
  2050 ;;		line 59 in file "MCAL_Layer/GPIO/hal_gpio.c"
  2051 ;; Parameters:    Size  Location     Type
  2052 ;;  pin_config      2    3[COMRAM] PTR const struct .
  2053 ;;		 -> lcd_4_bit_send_command@lcd.lcd_data(8), lcd_4_bit_send_char_data@lcd.lcd_data(8), lcd_4_bit_send_data_position@l
      +cd.lcd_data(8), lcd_4_bit_send_string@lcd.lcd_data(8), 
  2054 ;;		 -> lcd_4_bit_send_string_position@lcd.lcd_data(8), lcd_1.lcd_data(8), ccp2_obj(14), ccp1_obj(14), 
  2055 ;;		 -> lcd_1.lcd_data(4), lcd_1(6), Relay_Turn_OFF@pin_obj(1), Relay_Turn_ON@pin_obj(1), 
  2056 ;;		 -> Relay_Initialize@pin_obj(1), led_turn_off@pin_obj(1), led_turn_on@pin_obj(1), led_initialize@pin_obj(1), 
  2057 ;;		 -> lcd_8_bit_send_command@lcd(2), lcd_4_bit_send_string_position@lcd(2), lcd_4_bit_send_string@lcd(2), lcd_4_bit_se
      +nd_data_position@lcd(2), 
  2058 ;;		 -> lcd_4_bit_send_char_data@lcd(2), lcd_4_bit_send_command@lcd(2), 
  2059 ;;  logic           1    5[COMRAM] enum E2968
  2060 ;; Auto vars:     Size  Location     Type
  2061 ;;  ret             1   12[COMRAM] unsigned char 
  2062 ;; Return value:  Size  Location     Type
  2063 ;;                  1    wreg      unsigned char 
  2064 ;; Registers used:
  2065 ;;		wreg, fsr2l, fsr2h, status,2, status,0, prodl, prodh
  2066 ;; Tracked objects:
  2067 ;;		On entry : 0/0
  2068 ;;		On exit  : 0/0
  2069 ;;		Unchanged: 0/0
  2070 ;; Data sizes:     COMRAM   BANK0   BANK1   BANK2   BANK3   BANK4   BANK5   BANK6   BANK7   BANK8   BANK9  BANK10  BANK1
      +1  BANK12  BANK13  BANK14  BANK15
  2071 ;;      Params:         3       0       0       0       0       0       0       0       0       0       0       0       
      +0       0       0       0       0
  2072 ;;      Locals:         1       0       0       0       0       0       0       0       0       0       0       0       
      +0       0       0       0       0
  2073 ;;      Temps:          6       0       0       0       0       0       0       0       0       0       0       0       
      +0       0       0       0       0
  2074 ;;      Totals:        10       0       0       0       0       0       0       0       0       0       0       0       
      +0       0       0       0       0
  2075 ;;Total ram usage:       10 bytes
  2076 ;; Hardware stack levels used: 1
  2077 ;; Hardware stack levels required when called: 3
  2078 ;; This function calls:
  2079 ;;		Nothing
  2080 ;; This function is called by:
  2081 ;;		_gpio_pin_intialize
  2082 ;;		_segment_write_data
  2083 ;;		_keypade_get_value
  2084 ;;		_lcd_4_bit_send_command
  2085 ;;		_lcd_4_bit_send_char_data
  2086 ;;		_lcd_8_bit_send_command
  2087 ;;		_lcd_8_bit_send_char_data
  2088 ;;		_send_4bit_data
  2089 ;;		_lcd_4bit_send_enable_signal
  2090 ;;		_lcd_8bit_send_enable_signal
  2091 ;;		_led_turn_on
  2092 ;;		_led_turn_off
  2093 ;;		_DC_Motor_Move_Right
  2094 ;;		_DC_Motor_Move_Left
  2095 ;;		_DC_Motor_Stop
  2096 ;;		_Relay_Turn_ON
  2097 ;;		_Relay_Turn_OFF
  2098 ;; This function uses a non-reentrant model
  2099 ;;
  2100                           
  2101                           	psect	text6
  2102   0028AE                     __ptext6:
  2103                           	callstack 0
  2104   0028AE                     _gpio_pin_write_logic:
  2105                           	callstack 25
  2106   0028AE                     
  2107                           ;MCAL_Layer/GPIO/hal_gpio.c: 60:     Std_ReturnType ret = (Std_ReturnType)0x01;
  2108   0028AE  0E01               	movlw	1
  2109   0028B0  6E0D               	movwf	gpio_pin_write_logic@ret^0,c
  2110   0028B2                     
  2111                           ;MCAL_Layer/GPIO/hal_gpio.c: 61:       if(pin_config == ((void*)0) || logic == ((void*)0
      +                          ) || pin_config->pin > 8 -1){
  2112   0028B2  5004               	movf	gpio_pin_write_logic@pin_config^0,w,c
  2113   0028B4  1005               	iorwf	(gpio_pin_write_logic@pin_config+1)^0,w,c
  2114   0028B6  B4D8               	btfsc	status,2,c
  2115   0028B8  EF60  F014         	goto	u7071
  2116   0028BC  EF62  F014         	goto	u7070
  2117   0028C0                     u7071:
  2118   0028C0  EF7B  F014         	goto	l7297
  2119   0028C4                     u7070:
  2120   0028C4  5006               	movf	gpio_pin_write_logic@logic^0,w,c
  2121   0028C6  B4D8               	btfsc	status,2,c
  2122   0028C8  EF68  F014         	goto	u7081
  2123   0028CC  EF6A  F014         	goto	u7080
  2124   0028D0                     u7081:
  2125   0028D0  EF7B  F014         	goto	l7297
  2126   0028D4                     u7080:
  2127   0028D4  C004  FFD9         	movff	gpio_pin_write_logic@pin_config,fsr2l
  2128   0028D8  C005  FFDA         	movff	gpio_pin_write_logic@pin_config+1,fsr2h
  2129   0028DC  30DF               	rrcf	223,w,c
  2130   0028DE  32E8               	rrcf	wreg,f,c
  2131   0028E0  32E8               	rrcf	wreg,f,c
  2132   0028E2  0B07               	andlw	7
  2133   0028E4  6E07               	movwf	??_gpio_pin_write_logic^0,c
  2134   0028E6  0E07               	movlw	7
  2135   0028E8  6407               	cpfsgt	??_gpio_pin_write_logic^0,c
  2136   0028EA  EF79  F014         	goto	u7091
  2137   0028EE  EF7B  F014         	goto	u7090
  2138   0028F2                     u7091:
  2139   0028F2  EFDE  F014         	goto	l7307
  2140   0028F6                     u7090:
  2141   0028F6                     l7297:
  2142                           
  2143                           ;MCAL_Layer/GPIO/hal_gpio.c: 62:      ret = (Std_ReturnType)0x00;
  2144   0028F6  0E00               	movlw	0
  2145   0028F8  6E0D               	movwf	gpio_pin_write_logic@ret^0,c
  2146                           
  2147                           ;MCAL_Layer/GPIO/hal_gpio.c: 63:  }
  2148   0028FA  EFF3  F014         	goto	l7309
  2149   0028FE                     l7299:
  2150                           
  2151                           ;MCAL_Layer/GPIO/hal_gpio.c: 68:            (*lat_registers[pin_config->port] &= ~(1<<pi
      +                          n_config->pin));
  2152   0028FE  C004  FFD9         	movff	gpio_pin_write_logic@pin_config,fsr2l
  2153   002902  C005  FFDA         	movff	gpio_pin_write_logic@pin_config+1,fsr2h
  2154   002906  30DF               	rrcf	223,w,c
  2155   002908  32E8               	rrcf	wreg,f,c
  2156   00290A  32E8               	rrcf	wreg,f,c
  2157   00290C  0B07               	andlw	7
  2158   00290E  6E07               	movwf	??_gpio_pin_write_logic^0,c
  2159   002910  0E01               	movlw	1
  2160   002912  6E08               	movwf	(??_gpio_pin_write_logic+1)^0,c
  2161   002914  2A07               	incf	??_gpio_pin_write_logic^0,f,c
  2162   002916  EF8F  F014         	goto	u7104
  2163   00291A                     u7105:
  2164   00291A  90D8               	bcf	status,0,c
  2165   00291C  3608               	rlcf	(??_gpio_pin_write_logic+1)^0,f,c
  2166   00291E                     u7104:
  2167   00291E  2E07               	decfsz	??_gpio_pin_write_logic^0,f,c
  2168   002920  EF8D  F014         	goto	u7105
  2169   002924  5008               	movf	(??_gpio_pin_write_logic+1)^0,w,c
  2170   002926  0AFF               	xorlw	255
  2171   002928  6E09               	movwf	(??_gpio_pin_write_logic+2)^0,c
  2172   00292A  C004  FFD9         	movff	gpio_pin_write_logic@pin_config,fsr2l
  2173   00292E  C005  FFDA         	movff	gpio_pin_write_logic@pin_config+1,fsr2h
  2174   002932  50DF               	movf	223,w,c
  2175   002934  0B07               	andlw	7
  2176   002936  6E0A               	movwf	(??_gpio_pin_write_logic+3)^0,c
  2177   002938  500A               	movf	(??_gpio_pin_write_logic+3)^0,w,c
  2178   00293A  0D02               	mullw	2
  2179   00293C  0ED9               	movlw	low _lat_registers
  2180   00293E  24F3               	addwf	243,w,c
  2181   002940  6ED9               	movwf	fsr2l,c
  2182   002942  0E00               	movlw	high _lat_registers
  2183   002944  20F4               	addwfc	prodh,w,c
  2184   002946  6EDA               	movwf	fsr2h,c
  2185   002948  CFDE F00B          	movff	postinc2,??_gpio_pin_write_logic+4
  2186   00294C  CFDD F00C          	movff	postdec2,??_gpio_pin_write_logic+5
  2187   002950  C00B  FFD9         	movff	??_gpio_pin_write_logic+4,fsr2l
  2188   002954  C00C  FFDA         	movff	??_gpio_pin_write_logic+5,fsr2h
  2189   002958  5009               	movf	(??_gpio_pin_write_logic+2)^0,w,c
  2190   00295A  16DF               	andwf	indf2,f,c
  2191                           
  2192                           ;MCAL_Layer/GPIO/hal_gpio.c: 69:            break;
  2193   00295C  EFF3  F014         	goto	l7309
  2194   002960                     l7301:
  2195                           
  2196                           ;MCAL_Layer/GPIO/hal_gpio.c: 71:            (*lat_registers[pin_config->port] |= (1<<pin
      +                          _config->pin));
  2197   002960  C004  FFD9         	movff	gpio_pin_write_logic@pin_config,fsr2l
  2198   002964  C005  FFDA         	movff	gpio_pin_write_logic@pin_config+1,fsr2h
  2199   002968  30DF               	rrcf	223,w,c
  2200   00296A  32E8               	rrcf	wreg,f,c
  2201   00296C  32E8               	rrcf	wreg,f,c
  2202   00296E  0B07               	andlw	7
  2203   002970  6E07               	movwf	??_gpio_pin_write_logic^0,c
  2204   002972  0E01               	movlw	1
  2205   002974  6E08               	movwf	(??_gpio_pin_write_logic+1)^0,c
  2206   002976  2A07               	incf	??_gpio_pin_write_logic^0,f,c
  2207   002978  EFC0  F014         	goto	u7114
  2208   00297C                     u7115:
  2209   00297C  90D8               	bcf	status,0,c
  2210   00297E  3608               	rlcf	(??_gpio_pin_write_logic+1)^0,f,c
  2211   002980                     u7114:
  2212   002980  2E07               	decfsz	??_gpio_pin_write_logic^0,f,c
  2213   002982  EFBE  F014         	goto	u7115
  2214   002986  C004  FFD9         	movff	gpio_pin_write_logic@pin_config,fsr2l
  2215   00298A  C005  FFDA         	movff	gpio_pin_write_logic@pin_config+1,fsr2h
  2216   00298E  50DF               	movf	223,w,c
  2217   002990  0B07               	andlw	7
  2218   002992  6E09               	movwf	(??_gpio_pin_write_logic+2)^0,c
  2219   002994  5009               	movf	(??_gpio_pin_write_logic+2)^0,w,c
  2220   002996  0D02               	mullw	2
  2221   002998  0ED9               	movlw	low _lat_registers
  2222   00299A  24F3               	addwf	243,w,c
  2223   00299C  6ED9               	movwf	fsr2l,c
  2224   00299E  0E00               	movlw	high _lat_registers
  2225   0029A0  20F4               	addwfc	prodh,w,c
  2226   0029A2  6EDA               	movwf	fsr2h,c
  2227   0029A4  CFDE F00A          	movff	postinc2,??_gpio_pin_write_logic+3
  2228   0029A8  CFDD F00B          	movff	postdec2,??_gpio_pin_write_logic+4
  2229   0029AC  C00A  FFD9         	movff	??_gpio_pin_write_logic+3,fsr2l
  2230   0029B0  C00B  FFDA         	movff	??_gpio_pin_write_logic+4,fsr2h
  2231   0029B4  5008               	movf	(??_gpio_pin_write_logic+1)^0,w,c
  2232   0029B6  12DF               	iorwf	indf2,f,c
  2233                           
  2234                           ;MCAL_Layer/GPIO/hal_gpio.c: 72:            break;
  2235   0029B8  EFF3  F014         	goto	l7309
  2236   0029BC                     l7307:
  2237   0029BC  5006               	movf	gpio_pin_write_logic@logic^0,w,c
  2238   0029BE  6E07               	movwf	??_gpio_pin_write_logic^0,c
  2239   0029C0  6A08               	clrf	(??_gpio_pin_write_logic+1)^0,c
  2240                           
  2241                           ; Switch on 2 bytes has been partitioned into a top level switch of size 1, and 1 sub-sw
      +                          itches
  2242                           ; Switch size 1, requested type "simple"
  2243                           ; Number of cases is 1, Range of values is 0 to 0
  2244                           ; switch strategies available:
  2245                           ; Name         Instructions Cycles
  2246                           ; simple_byte            4     3 (average)
  2247                           ;	Chosen strategy is simple_byte
  2248   0029C2  5008               	movf	(??_gpio_pin_write_logic+1)^0,w,c
  2249   0029C4  0A00               	xorlw	0	; case 0
  2250   0029C6  B4D8               	btfsc	status,2,c
  2251   0029C8  EFE8  F014         	goto	l8877
  2252   0029CC  EF7B  F014         	goto	l7297
  2253   0029D0                     l8877:
  2254                           
  2255                           ; Switch size 1, requested type "simple"
  2256                           ; Number of cases is 2, Range of values is 0 to 1
  2257                           ; switch strategies available:
  2258                           ; Name         Instructions Cycles
  2259                           ; simple_byte            7     4 (average)
  2260                           ;	Chosen strategy is simple_byte
  2261   0029D0  5007               	movf	??_gpio_pin_write_logic^0,w,c
  2262   0029D2  0A00               	xorlw	0	; case 0
  2263   0029D4  B4D8               	btfsc	status,2,c
  2264   0029D6  EF7F  F014         	goto	l7299
  2265   0029DA  0A01               	xorlw	1	; case 1
  2266   0029DC  B4D8               	btfsc	status,2,c
  2267   0029DE  EFB0  F014         	goto	l7301
  2268   0029E2  EF7B  F014         	goto	l7297
  2269   0029E6                     l7309:
  2270                           
  2271                           ;MCAL_Layer/GPIO/hal_gpio.c: 78:     return ret;
  2272   0029E6  500D               	movf	gpio_pin_write_logic@ret^0,w,c
  2273   0029E8  0012               	return		;funcret
  2274   0029EA                     __end_of_gpio_pin_write_logic:
  2275                           	callstack 0
  2276                           
  2277 ;; *************** function _gpio_pin_direction_intialize *****************
  2278 ;; Defined at:
  2279 ;;		line 14 in file "MCAL_Layer/GPIO/hal_gpio.c"
  2280 ;; Parameters:    Size  Location     Type
  2281 ;;  pin_config      2    3[COMRAM] PTR const struct .
  2282 ;;		 -> ccp2_obj(14), ccp1_obj(14), lcd_1.lcd_data(4), lcd_1(6), 
  2283 ;;		 -> Relay_Initialize@pin_obj(1), led_initialize@pin_obj(1), 
  2284 ;; Auto vars:     Size  Location     Type
  2285 ;;  ret             1   11[COMRAM] unsigned char 
  2286 ;; Return value:  Size  Location     Type
  2287 ;;                  1    wreg      unsigned char 
  2288 ;; Registers used:
  2289 ;;		wreg, fsr2l, fsr2h, status,2, status,0, prodl, prodh
  2290 ;; Tracked objects:
  2291 ;;		On entry : 0/0
  2292 ;;		On exit  : 0/0
  2293 ;;		Unchanged: 0/0
  2294 ;; Data sizes:     COMRAM   BANK0   BANK1   BANK2   BANK3   BANK4   BANK5   BANK6   BANK7   BANK8   BANK9  BANK10  BANK1
      +1  BANK12  BANK13  BANK14  BANK15
  2295 ;;      Params:         2       0       0       0       0       0       0       0       0       0       0       0       
      +0       0       0       0       0
  2296 ;;      Locals:         1       0       0       0       0       0       0       0       0       0       0       0       
      +0       0       0       0       0
  2297 ;;      Temps:          6       0       0       0       0       0       0       0       0       0       0       0       
      +0       0       0       0       0
  2298 ;;      Totals:         9       0       0       0       0       0       0       0       0       0       0       0       
      +0       0       0       0       0
  2299 ;;Total ram usage:        9 bytes
  2300 ;; Hardware stack levels used: 1
  2301 ;; Hardware stack levels required when called: 3
  2302 ;; This function calls:
  2303 ;;		Nothing
  2304 ;; This function is called by:
  2305 ;;		_gpio_pin_intialize
  2306 ;;		_Button_Initialize
  2307 ;;		_keypade_initialize
  2308 ;;		_Interrupt_RBx_Initialization
  2309 ;;		_Interrupt_INTx_Pin_Init
  2310 ;; This function uses a non-reentrant model
  2311 ;;
  2312                           
  2313                           	psect	text7
  2314   00276A                     __ptext7:
  2315                           	callstack 0
  2316   00276A                     _gpio_pin_direction_intialize:
  2317                           	callstack 25
  2318   00276A                     
  2319                           ;MCAL_Layer/GPIO/hal_gpio.c: 15:  Std_ReturnType ret = (Std_ReturnType)0x01;
  2320   00276A  0E01               	movlw	1
  2321   00276C  6E0C               	movwf	gpio_pin_direction_intialize@ret^0,c
  2322   00276E                     
  2323                           ;MCAL_Layer/GPIO/hal_gpio.c: 16:  if(pin_config == ((void*)0) || pin_config->pin > 8 -1)
      +                          {
  2324   00276E  5004               	movf	gpio_pin_direction_intialize@pin_config^0,w,c
  2325   002770  1005               	iorwf	(gpio_pin_direction_intialize@pin_config+1)^0,w,c
  2326   002772  B4D8               	btfsc	status,2,c
  2327   002774  EFBE  F013         	goto	u7121
  2328   002778  EFC0  F013         	goto	u7120
  2329   00277C                     u7121:
  2330   00277C  EFD1  F013         	goto	l7323
  2331   002780                     u7120:
  2332   002780  C004  FFD9         	movff	gpio_pin_direction_intialize@pin_config,fsr2l
  2333   002784  C005  FFDA         	movff	gpio_pin_direction_intialize@pin_config+1,fsr2h
  2334   002788  30DF               	rrcf	223,w,c
  2335   00278A  32E8               	rrcf	wreg,f,c
  2336   00278C  32E8               	rrcf	wreg,f,c
  2337   00278E  0B07               	andlw	7
  2338   002790  6E06               	movwf	??_gpio_pin_direction_intialize^0,c
  2339   002792  0E07               	movlw	7
  2340   002794  6406               	cpfsgt	??_gpio_pin_direction_intialize^0,c
  2341   002796  EFCF  F013         	goto	u7131
  2342   00279A  EFD1  F013         	goto	u7130
  2343   00279E                     u7131:
  2344   00279E  EF34  F014         	goto	l7331
  2345   0027A2                     u7130:
  2346   0027A2                     l7323:
  2347                           
  2348                           ;MCAL_Layer/GPIO/hal_gpio.c: 17:      ret = (Std_ReturnType)0x00;
  2349   0027A2  0E00               	movlw	0
  2350   0027A4  6E0C               	movwf	gpio_pin_direction_intialize@ret^0,c
  2351                           
  2352                           ;MCAL_Layer/GPIO/hal_gpio.c: 18:  }
  2353   0027A6  EF55  F014         	goto	l7333
  2354   0027AA                     l7325:
  2355                           
  2356                           ;MCAL_Layer/GPIO/hal_gpio.c: 22:            (*tris_registers[pin_config->port] &= ~(1<<p
      +                          in_config->pin));
  2357   0027AA  C004  FFD9         	movff	gpio_pin_direction_intialize@pin_config,fsr2l
  2358   0027AE  C005  FFDA         	movff	gpio_pin_direction_intialize@pin_config+1,fsr2h
  2359   0027B2  30DF               	rrcf	223,w,c
  2360   0027B4  32E8               	rrcf	wreg,f,c
  2361   0027B6  32E8               	rrcf	wreg,f,c
  2362   0027B8  0B07               	andlw	7
  2363   0027BA  6E06               	movwf	??_gpio_pin_direction_intialize^0,c
  2364   0027BC  0E01               	movlw	1
  2365   0027BE  6E07               	movwf	(??_gpio_pin_direction_intialize+1)^0,c
  2366   0027C0  2A06               	incf	??_gpio_pin_direction_intialize^0,f,c
  2367   0027C2  EFE5  F013         	goto	u7144
  2368   0027C6                     u7145:
  2369   0027C6  90D8               	bcf	status,0,c
  2370   0027C8  3607               	rlcf	(??_gpio_pin_direction_intialize+1)^0,f,c
  2371   0027CA                     u7144:
  2372   0027CA  2E06               	decfsz	??_gpio_pin_direction_intialize^0,f,c
  2373   0027CC  EFE3  F013         	goto	u7145
  2374   0027D0  5007               	movf	(??_gpio_pin_direction_intialize+1)^0,w,c
  2375   0027D2  0AFF               	xorlw	255
  2376   0027D4  6E08               	movwf	(??_gpio_pin_direction_intialize+2)^0,c
  2377   0027D6  C004  FFD9         	movff	gpio_pin_direction_intialize@pin_config,fsr2l
  2378   0027DA  C005  FFDA         	movff	gpio_pin_direction_intialize@pin_config+1,fsr2h
  2379   0027DE  50DF               	movf	223,w,c
  2380   0027E0  0B07               	andlw	7
  2381   0027E2  6E09               	movwf	(??_gpio_pin_direction_intialize+3)^0,c
  2382   0027E4  5009               	movf	(??_gpio_pin_direction_intialize+3)^0,w,c
  2383   0027E6  0D02               	mullw	2
  2384   0027E8  0EE3               	movlw	low _tris_registers
  2385   0027EA  24F3               	addwf	243,w,c
  2386   0027EC  6ED9               	movwf	fsr2l,c
  2387   0027EE  0E00               	movlw	high _tris_registers
  2388   0027F0  20F4               	addwfc	prodh,w,c
  2389   0027F2  6EDA               	movwf	fsr2h,c
  2390   0027F4  CFDE F00A          	movff	postinc2,??_gpio_pin_direction_intialize+4
  2391   0027F8  CFDD F00B          	movff	postdec2,??_gpio_pin_direction_intialize+5
  2392   0027FC  C00A  FFD9         	movff	??_gpio_pin_direction_intialize+4,fsr2l
  2393   002800  C00B  FFDA         	movff	??_gpio_pin_direction_intialize+5,fsr2h
  2394   002804  5008               	movf	(??_gpio_pin_direction_intialize+2)^0,w,c
  2395   002806  16DF               	andwf	indf2,f,c
  2396                           
  2397                           ;MCAL_Layer/GPIO/hal_gpio.c: 23:            break;
  2398   002808  EF55  F014         	goto	l7333
  2399   00280C                     l7327:
  2400                           
  2401                           ;MCAL_Layer/GPIO/hal_gpio.c: 25:            (*tris_registers[pin_config->port] |= (1<<pi
      +                          n_config->pin));
  2402   00280C  C004  FFD9         	movff	gpio_pin_direction_intialize@pin_config,fsr2l
  2403   002810  C005  FFDA         	movff	gpio_pin_direction_intialize@pin_config+1,fsr2h
  2404   002814  30DF               	rrcf	223,w,c
  2405   002816  32E8               	rrcf	wreg,f,c
  2406   002818  32E8               	rrcf	wreg,f,c
  2407   00281A  0B07               	andlw	7
  2408   00281C  6E06               	movwf	??_gpio_pin_direction_intialize^0,c
  2409   00281E  0E01               	movlw	1
  2410   002820  6E07               	movwf	(??_gpio_pin_direction_intialize+1)^0,c
  2411   002822  2A06               	incf	??_gpio_pin_direction_intialize^0,f,c
  2412   002824  EF16  F014         	goto	u7154
  2413   002828                     u7155:
  2414   002828  90D8               	bcf	status,0,c
  2415   00282A  3607               	rlcf	(??_gpio_pin_direction_intialize+1)^0,f,c
  2416   00282C                     u7154:
  2417   00282C  2E06               	decfsz	??_gpio_pin_direction_intialize^0,f,c
  2418   00282E  EF14  F014         	goto	u7155
  2419   002832  C004  FFD9         	movff	gpio_pin_direction_intialize@pin_config,fsr2l
  2420   002836  C005  FFDA         	movff	gpio_pin_direction_intialize@pin_config+1,fsr2h
  2421   00283A  50DF               	movf	223,w,c
  2422   00283C  0B07               	andlw	7
  2423   00283E  6E08               	movwf	(??_gpio_pin_direction_intialize+2)^0,c
  2424   002840  5008               	movf	(??_gpio_pin_direction_intialize+2)^0,w,c
  2425   002842  0D02               	mullw	2
  2426   002844  0EE3               	movlw	low _tris_registers
  2427   002846  24F3               	addwf	243,w,c
  2428   002848  6ED9               	movwf	fsr2l,c
  2429   00284A  0E00               	movlw	high _tris_registers
  2430   00284C  20F4               	addwfc	prodh,w,c
  2431   00284E  6EDA               	movwf	fsr2h,c
  2432   002850  CFDE F009          	movff	postinc2,??_gpio_pin_direction_intialize+3
  2433   002854  CFDD F00A          	movff	postdec2,??_gpio_pin_direction_intialize+4
  2434   002858  C009  FFD9         	movff	??_gpio_pin_direction_intialize+3,fsr2l
  2435   00285C  C00A  FFDA         	movff	??_gpio_pin_direction_intialize+4,fsr2h
  2436   002860  5007               	movf	(??_gpio_pin_direction_intialize+1)^0,w,c
  2437   002862  12DF               	iorwf	indf2,f,c
  2438                           
  2439                           ;MCAL_Layer/GPIO/hal_gpio.c: 26:            break;
  2440   002864  EF55  F014         	goto	l7333
  2441   002868                     l7331:
  2442   002868  C004  FFD9         	movff	gpio_pin_direction_intialize@pin_config,fsr2l
  2443   00286C  C005  FFDA         	movff	gpio_pin_direction_intialize@pin_config+1,fsr2h
  2444   002870  BCDF               	btfsc	indf2,6,c
  2445   002872  EF3D  F014         	goto	u7161
  2446   002876  EF40  F014         	goto	u7160
  2447   00287A                     u7161:
  2448   00287A  0E01               	movlw	1
  2449   00287C  EF41  F014         	goto	u7170
  2450   002880                     u7160:
  2451   002880  0E00               	movlw	0
  2452   002882                     u7170:
  2453   002882  6E06               	movwf	??_gpio_pin_direction_intialize^0,c
  2454   002884  6A07               	clrf	(??_gpio_pin_direction_intialize+1)^0,c
  2455                           
  2456                           ; Switch on 2 bytes has been partitioned into a top level switch of size 1, and 1 sub-sw
      +                          itches
  2457                           ; Switch size 1, requested type "simple"
  2458                           ; Number of cases is 1, Range of values is 0 to 0
  2459                           ; switch strategies available:
  2460                           ; Name         Instructions Cycles
  2461                           ; simple_byte            4     3 (average)
  2462                           ;	Chosen strategy is simple_byte
  2463   002886  5007               	movf	(??_gpio_pin_direction_intialize+1)^0,w,c
  2464   002888  0A00               	xorlw	0	; case 0
  2465   00288A  B4D8               	btfsc	status,2,c
  2466   00288C  EF4A  F014         	goto	l8879
  2467   002890  EFD1  F013         	goto	l7323
  2468   002894                     l8879:
  2469                           
  2470                           ; Switch size 1, requested type "simple"
  2471                           ; Number of cases is 2, Range of values is 0 to 1
  2472                           ; switch strategies available:
  2473                           ; Name         Instructions Cycles
  2474                           ; simple_byte            7     4 (average)
  2475                           ;	Chosen strategy is simple_byte
  2476   002894  5006               	movf	??_gpio_pin_direction_intialize^0,w,c
  2477   002896  0A00               	xorlw	0	; case 0
  2478   002898  B4D8               	btfsc	status,2,c
  2479   00289A  EFD5  F013         	goto	l7325
  2480   00289E  0A01               	xorlw	1	; case 1
  2481   0028A0  B4D8               	btfsc	status,2,c
  2482   0028A2  EF06  F014         	goto	l7327
  2483   0028A6  EFD1  F013         	goto	l7323
  2484   0028AA                     l7333:
  2485                           
  2486                           ;MCAL_Layer/GPIO/hal_gpio.c: 31:       return ret;
  2487   0028AA  500C               	movf	gpio_pin_direction_intialize@ret^0,w,c
  2488   0028AC  0012               	return		;funcret
  2489   0028AE                     __end_of_gpio_pin_direction_intialize:
  2490                           	callstack 0
  2491                           
  2492 ;; *************** function ___xxtofl *****************
  2493 ;; Defined at:
  2494 ;;		line 10 in file "D:\Embeded-Compiler\pic\sources\c99\common\xxtofl.c"
  2495 ;; Parameters:    Size  Location     Type
  2496 ;;  sign            1    wreg     unsigned char 
  2497 ;;  val             4    3[COMRAM] long 
  2498 ;; Auto vars:     Size  Location     Type
  2499 ;;  sign            1   11[COMRAM] unsigned char 
  2500 ;;  arg             4   13[COMRAM] unsigned long 
  2501 ;;  exp             1   12[COMRAM] unsigned char 
  2502 ;; Return value:  Size  Location     Type
  2503 ;;                  4    3[COMRAM] unsigned char 
  2504 ;; Registers used:
  2505 ;;		wreg, status,2, status,0
  2506 ;; Tracked objects:
  2507 ;;		On entry : 0/0
  2508 ;;		On exit  : 0/0
  2509 ;;		Unchanged: 0/0
  2510 ;; Data sizes:     COMRAM   BANK0   BANK1   BANK2   BANK3   BANK4   BANK5   BANK6   BANK7   BANK8   BANK9  BANK10  BANK1
      +1  BANK12  BANK13  BANK14  BANK15
  2511 ;;      Params:         4       0       0       0       0       0       0       0       0       0       0       0       
      +0       0       0       0       0
  2512 ;;      Locals:         6       0       0       0       0       0       0       0       0       0       0       0       
      +0       0       0       0       0
  2513 ;;      Temps:          4       0       0       0       0       0       0       0       0       0       0       0       
      +0       0       0       0       0
  2514 ;;      Totals:        14       0       0       0       0       0       0       0       0       0       0       0       
      +0       0       0       0       0
  2515 ;;Total ram usage:       14 bytes
  2516 ;; Hardware stack levels used: 1
  2517 ;; Hardware stack levels required when called: 3
  2518 ;; This function calls:
  2519 ;;		Nothing
  2520 ;; This function is called by:
  2521 ;;		_CCP_PWM_Init
  2522 ;;		_CCP_PWM_Set_Duty
  2523 ;; This function uses a non-reentrant model
  2524 ;;
  2525                           
  2526                           	psect	text8
  2527   00229C                     __ptext8:
  2528                           	callstack 0
  2529   00229C                     ___xxtofl:
  2530                           	callstack 26
  2531                           
  2532                           ;incstack = 0
  2533                           ;___xxtofl@sign stored from wreg
  2534   00229C  6E0C               	movwf	___xxtofl@sign^0,c
  2535   00229E  500C               	movf	___xxtofl@sign^0,w,c
  2536   0022A0  B4D8               	btfsc	status,2,c
  2537   0022A2  EF55  F011         	goto	u8091
  2538   0022A6  EF57  F011         	goto	u8090
  2539   0022AA                     u8091:
  2540   0022AA  EF79  F011         	goto	l1978
  2541   0022AE                     u8090:
  2542   0022AE  BE07               	btfsc	(___xxtofl@val+3)^0,7,c
  2543   0022B0  EF5E  F011         	goto	u8100
  2544   0022B4  EF5C  F011         	goto	u8101
  2545   0022B8                     u8101:
  2546   0022B8  EF79  F011         	goto	l1978
  2547   0022BC                     u8100:
  2548   0022BC  C004  F008         	movff	___xxtofl@val,??___xxtofl
  2549   0022C0  C005  F009         	movff	___xxtofl@val+1,??___xxtofl+1
  2550   0022C4  C006  F00A         	movff	___xxtofl@val+2,??___xxtofl+2
  2551   0022C8  C007  F00B         	movff	___xxtofl@val+3,??___xxtofl+3
  2552   0022CC  1E08               	comf	??___xxtofl^0,f,c
  2553   0022CE  1E09               	comf	(??___xxtofl+1)^0,f,c
  2554   0022D0  1E0A               	comf	(??___xxtofl+2)^0,f,c
  2555   0022D2  1E0B               	comf	(??___xxtofl+3)^0,f,c
  2556   0022D4  2A08               	incf	??___xxtofl^0,f,c
  2557   0022D6  0E00               	movlw	0
  2558   0022D8  2209               	addwfc	(??___xxtofl+1)^0,f,c
  2559   0022DA  220A               	addwfc	(??___xxtofl+2)^0,f,c
  2560   0022DC  220B               	addwfc	(??___xxtofl+3)^0,f,c
  2561   0022DE  C008  F00E         	movff	??___xxtofl,___xxtofl@arg
  2562   0022E2  C009  F00F         	movff	??___xxtofl+1,___xxtofl@arg+1
  2563   0022E6  C00A  F010         	movff	??___xxtofl+2,___xxtofl@arg+2
  2564   0022EA  C00B  F011         	movff	??___xxtofl+3,___xxtofl@arg+3
  2565   0022EE  EF81  F011         	goto	l7923
  2566   0022F2                     l1978:
  2567   0022F2  C004  F00E         	movff	___xxtofl@val,___xxtofl@arg
  2568   0022F6  C005  F00F         	movff	___xxtofl@val+1,___xxtofl@arg+1
  2569   0022FA  C006  F010         	movff	___xxtofl@val+2,___xxtofl@arg+2
  2570   0022FE  C007  F011         	movff	___xxtofl@val+3,___xxtofl@arg+3
  2571   002302                     l7923:
  2572   002302  5004               	movf	___xxtofl@val^0,w,c
  2573   002304  1005               	iorwf	(___xxtofl@val+1)^0,w,c
  2574   002306  1006               	iorwf	(___xxtofl@val+2)^0,w,c
  2575   002308  1007               	iorwf	(___xxtofl@val+3)^0,w,c
  2576   00230A  A4D8               	btfss	status,2,c
  2577   00230C  EF8A  F011         	goto	u8111
  2578   002310  EF8C  F011         	goto	u8110
  2579   002314                     u8111:
  2580   002314  EF96  F011         	goto	l7929
  2581   002318                     u8110:
  2582   002318  0E00               	movlw	0
  2583   00231A  6E04               	movwf	?___xxtofl^0,c
  2584   00231C  0E00               	movlw	0
  2585   00231E  6E05               	movwf	(?___xxtofl+1)^0,c
  2586   002320  0E00               	movlw	0
  2587   002322  6E06               	movwf	(?___xxtofl+2)^0,c
  2588   002324  0E00               	movlw	0
  2589   002326  6E07               	movwf	(?___xxtofl+3)^0,c
  2590   002328  EF27  F012         	goto	l1981
  2591   00232C                     l7929:
  2592   00232C  0E96               	movlw	150
  2593   00232E  6E0D               	movwf	___xxtofl@exp^0,c
  2594   002330  EFA0  F011         	goto	l7933
  2595   002334                     l7931:
  2596   002334  2A0D               	incf	___xxtofl@exp^0,f,c
  2597   002336  90D8               	bcf	status,0,c
  2598   002338  3211               	rrcf	(___xxtofl@arg+3)^0,f,c
  2599   00233A  3210               	rrcf	(___xxtofl@arg+2)^0,f,c
  2600   00233C  320F               	rrcf	(___xxtofl@arg+1)^0,f,c
  2601   00233E  320E               	rrcf	___xxtofl@arg^0,f,c
  2602   002340                     l7933:
  2603   002340  0E00               	movlw	0
  2604   002342  140E               	andwf	___xxtofl@arg^0,w,c
  2605   002344  6E08               	movwf	??___xxtofl^0,c
  2606   002346  0E00               	movlw	0
  2607   002348  140F               	andwf	(___xxtofl@arg+1)^0,w,c
  2608   00234A  6E09               	movwf	(??___xxtofl+1)^0,c
  2609   00234C  0E00               	movlw	0
  2610   00234E  1410               	andwf	(___xxtofl@arg+2)^0,w,c
  2611   002350  6E0A               	movwf	(??___xxtofl+2)^0,c
  2612   002352  0EFE               	movlw	254
  2613   002354  1411               	andwf	(___xxtofl@arg+3)^0,w,c
  2614   002356  6E0B               	movwf	(??___xxtofl+3)^0,c
  2615   002358  5008               	movf	??___xxtofl^0,w,c
  2616   00235A  1009               	iorwf	(??___xxtofl+1)^0,w,c
  2617   00235C  100A               	iorwf	(??___xxtofl+2)^0,w,c
  2618   00235E  100B               	iorwf	(??___xxtofl+3)^0,w,c
  2619   002360  A4D8               	btfss	status,2,c
  2620   002362  EFB5  F011         	goto	u8121
  2621   002366  EFB7  F011         	goto	u8120
  2622   00236A                     u8121:
  2623   00236A  EF9A  F011         	goto	l7931
  2624   00236E                     u8120:
  2625   00236E  EFC5  F011         	goto	l1985
  2626   002372                     l7935:
  2627   002372  2A0D               	incf	___xxtofl@exp^0,f,c
  2628   002374  0E01               	movlw	1
  2629   002376  260E               	addwf	___xxtofl@arg^0,f,c
  2630   002378  0E00               	movlw	0
  2631   00237A  220F               	addwfc	(___xxtofl@arg+1)^0,f,c
  2632   00237C  2210               	addwfc	(___xxtofl@arg+2)^0,f,c
  2633   00237E  2211               	addwfc	(___xxtofl@arg+3)^0,f,c
  2634   002380  90D8               	bcf	status,0,c
  2635   002382  3211               	rrcf	(___xxtofl@arg+3)^0,f,c
  2636   002384  3210               	rrcf	(___xxtofl@arg+2)^0,f,c
  2637   002386  320F               	rrcf	(___xxtofl@arg+1)^0,f,c
  2638   002388  320E               	rrcf	___xxtofl@arg^0,f,c
  2639   00238A                     l1985:
  2640   00238A  0E00               	movlw	0
  2641   00238C  140E               	andwf	___xxtofl@arg^0,w,c
  2642   00238E  6E08               	movwf	??___xxtofl^0,c
  2643   002390  0E00               	movlw	0
  2644   002392  140F               	andwf	(___xxtofl@arg+1)^0,w,c
  2645   002394  6E09               	movwf	(??___xxtofl+1)^0,c
  2646   002396  0E00               	movlw	0
  2647   002398  1410               	andwf	(___xxtofl@arg+2)^0,w,c
  2648   00239A  6E0A               	movwf	(??___xxtofl+2)^0,c
  2649   00239C  0EFF               	movlw	255
  2650   00239E  1411               	andwf	(___xxtofl@arg+3)^0,w,c
  2651   0023A0  6E0B               	movwf	(??___xxtofl+3)^0,c
  2652   0023A2  5008               	movf	??___xxtofl^0,w,c
  2653   0023A4  1009               	iorwf	(??___xxtofl+1)^0,w,c
  2654   0023A6  100A               	iorwf	(??___xxtofl+2)^0,w,c
  2655   0023A8  100B               	iorwf	(??___xxtofl+3)^0,w,c
  2656   0023AA  A4D8               	btfss	status,2,c
  2657   0023AC  EFDA  F011         	goto	u8131
  2658   0023B0  EFDC  F011         	goto	u8130
  2659   0023B4                     u8131:
  2660   0023B4  EFB9  F011         	goto	l7935
  2661   0023B8                     u8130:
  2662   0023B8  EFE4  F011         	goto	l7943
  2663   0023BC                     l7941:
  2664   0023BC  060D               	decf	___xxtofl@exp^0,f,c
  2665   0023BE  90D8               	bcf	status,0,c
  2666   0023C0  360E               	rlcf	___xxtofl@arg^0,f,c
  2667   0023C2  360F               	rlcf	(___xxtofl@arg+1)^0,f,c
  2668   0023C4  3610               	rlcf	(___xxtofl@arg+2)^0,f,c
  2669   0023C6  3611               	rlcf	(___xxtofl@arg+3)^0,f,c
  2670   0023C8                     l7943:
  2671   0023C8  BE10               	btfsc	(___xxtofl@arg+2)^0,7,c
  2672   0023CA  EFE9  F011         	goto	u8141
  2673   0023CE  EFEB  F011         	goto	u8140
  2674   0023D2                     u8141:
  2675   0023D2  EFF3  F011         	goto	l1992
  2676   0023D6                     u8140:
  2677   0023D6  0E02               	movlw	2
  2678   0023D8  600D               	cpfslt	___xxtofl@exp^0,c
  2679   0023DA  EFF1  F011         	goto	u8151
  2680   0023DE  EFF3  F011         	goto	u8150
  2681   0023E2                     u8151:
  2682   0023E2  EFDE  F011         	goto	l7941
  2683   0023E6                     u8150:
  2684   0023E6                     l1992:
  2685   0023E6  B00D               	btfsc	___xxtofl@exp^0,0,c
  2686   0023E8  EFF8  F011         	goto	u8161
  2687   0023EC  EFFA  F011         	goto	u8160
  2688   0023F0                     u8161:
  2689   0023F0  EFFB  F011         	goto	l7949
  2690   0023F4                     u8160:
  2691   0023F4  9E10               	bcf	(___xxtofl@arg+2)^0,7,c
  2692   0023F6                     l7949:
  2693   0023F6  90D8               	bcf	status,0,c
  2694   0023F8  320D               	rrcf	___xxtofl@exp^0,f,c
  2695   0023FA  C00D  F008         	movff	___xxtofl@exp,??___xxtofl
  2696   0023FE  6A09               	clrf	(??___xxtofl+1)^0,c
  2697   002400  6A0A               	clrf	(??___xxtofl+2)^0,c
  2698   002402  6A0B               	clrf	(??___xxtofl+3)^0,c
  2699   002404  C008  F00B         	movff	??___xxtofl,??___xxtofl+3
  2700   002408  6A0A               	clrf	(??___xxtofl+2)^0,c
  2701   00240A  6A09               	clrf	(??___xxtofl+1)^0,c
  2702   00240C  6A08               	clrf	??___xxtofl^0,c
  2703   00240E  5008               	movf	??___xxtofl^0,w,c
  2704   002410  120E               	iorwf	___xxtofl@arg^0,f,c
  2705   002412  5009               	movf	(??___xxtofl+1)^0,w,c
  2706   002414  120F               	iorwf	(___xxtofl@arg+1)^0,f,c
  2707   002416  500A               	movf	(??___xxtofl+2)^0,w,c
  2708   002418  1210               	iorwf	(___xxtofl@arg+2)^0,f,c
  2709   00241A  500B               	movf	(??___xxtofl+3)^0,w,c
  2710   00241C  1211               	iorwf	(___xxtofl@arg+3)^0,f,c
  2711   00241E  500C               	movf	___xxtofl@sign^0,w,c
  2712   002420  B4D8               	btfsc	status,2,c
  2713   002422  EF15  F012         	goto	u8171
  2714   002426  EF17  F012         	goto	u8170
  2715   00242A                     u8171:
  2716   00242A  EF1F  F012         	goto	l7959
  2717   00242E                     u8170:
  2718   00242E  BE07               	btfsc	(___xxtofl@val+3)^0,7,c
  2719   002430  EF1E  F012         	goto	u8180
  2720   002434  EF1C  F012         	goto	u8181
  2721   002438                     u8181:
  2722   002438  EF1F  F012         	goto	l7959
  2723   00243C                     u8180:
  2724   00243C  8E11               	bsf	(___xxtofl@arg+3)^0,7,c
  2725   00243E                     l7959:
  2726   00243E  C00E  F004         	movff	___xxtofl@arg,?___xxtofl
  2727   002442  C00F  F005         	movff	___xxtofl@arg+1,?___xxtofl+1
  2728   002446  C010  F006         	movff	___xxtofl@arg+2,?___xxtofl+2
  2729   00244A  C011  F007         	movff	___xxtofl@arg+3,?___xxtofl+3
  2730   00244E                     l1981:
  2731   00244E  0012               	return		;funcret
  2732   002450                     __end_of___xxtofl:
  2733                           	callstack 0
  2734                           
  2735 ;; *************** function ___fltol *****************
  2736 ;; Defined at:
  2737 ;;		line 43 in file "D:\Embeded-Compiler\pic\sources\c99\common\fltol.c"
  2738 ;; Parameters:    Size  Location     Type
  2739 ;;  f1              4   83[COMRAM] unsigned char 
  2740 ;; Auto vars:     Size  Location     Type
  2741 ;;  exp1            1   92[COMRAM] unsigned char 
  2742 ;;  sign1           1   91[COMRAM] unsigned char 
  2743 ;; Return value:  Size  Location     Type
  2744 ;;                  4   83[COMRAM] long 
  2745 ;; Registers used:
  2746 ;;		wreg, status,2, status,0
  2747 ;; Tracked objects:
  2748 ;;		On entry : 0/0
  2749 ;;		On exit  : 0/0
  2750 ;;		Unchanged: 0/0
  2751 ;; Data sizes:     COMRAM   BANK0   BANK1   BANK2   BANK3   BANK4   BANK5   BANK6   BANK7   BANK8   BANK9  BANK10  BANK1
      +1  BANK12  BANK13  BANK14  BANK15
  2752 ;;      Params:         4       0       0       0       0       0       0       0       0       0       0       0       
      +0       0       0       0       0
  2753 ;;      Locals:         2       0       0       0       0       0       0       0       0       0       0       0       
      +0       0       0       0       0
  2754 ;;      Temps:          4       0       0       0       0       0       0       0       0       0       0       0       
      +0       0       0       0       0
  2755 ;;      Totals:        10       0       0       0       0       0       0       0       0       0       0       0       
      +0       0       0       0       0
  2756 ;;Total ram usage:       10 bytes
  2757 ;; Hardware stack levels used: 1
  2758 ;; Hardware stack levels required when called: 3
  2759 ;; This function calls:
  2760 ;;		Nothing
  2761 ;; This function is called by:
  2762 ;;		_CCP_PWM_Init
  2763 ;;		_CCP_PWM_Set_Duty
  2764 ;; This function uses a non-reentrant model
  2765 ;;
  2766                           
  2767                           	psect	text9
  2768   0029EA                     __ptext9:
  2769                           	callstack 0
  2770   0029EA                     ___fltol:
  2771                           	callstack 26
  2772   0029EA  3456               	rlcf	(___fltol@f1+2)^0,w,c
  2773   0029EC  3457               	rlcf	(___fltol@f1+3)^0,w,c
  2774   0029EE  6E5D               	movwf	___fltol@exp1^0,c
  2775   0029F0  505D               	movf	___fltol@exp1^0,w,c
  2776   0029F2  A4D8               	btfss	status,2,c
  2777   0029F4  EFFE  F014         	goto	u8021
  2778   0029F8  EF00  F015         	goto	u8020
  2779   0029FC                     u8021:
  2780   0029FC  EF0A  F015         	goto	l7879
  2781   002A00                     u8020:
  2782   002A00                     l7875:
  2783   002A00  0E00               	movlw	0
  2784   002A02  6E54               	movwf	?___fltol^0,c
  2785   002A04  0E00               	movlw	0
  2786   002A06  6E55               	movwf	(?___fltol+1)^0,c
  2787   002A08  0E00               	movlw	0
  2788   002A0A  6E56               	movwf	(?___fltol+2)^0,c
  2789   002A0C  0E00               	movlw	0
  2790   002A0E  6E57               	movwf	(?___fltol+3)^0,c
  2791   002A10  EF77  F015         	goto	l1620
  2792   002A14                     l7879:
  2793   002A14  C054  F058         	movff	___fltol@f1,??___fltol
  2794   002A18  C055  F059         	movff	___fltol@f1+1,??___fltol+1
  2795   002A1C  C056  F05A         	movff	___fltol@f1+2,??___fltol+2
  2796   002A20  C057  F05B         	movff	___fltol@f1+3,??___fltol+3
  2797   002A24  0E20               	movlw	32
  2798   002A26  EF1A  F015         	goto	u8030
  2799   002A2A                     u8035:
  2800   002A2A  90D8               	bcf	status,0,c
  2801   002A2C  325B               	rrcf	(??___fltol+3)^0,f,c
  2802   002A2E  325A               	rrcf	(??___fltol+2)^0,f,c
  2803   002A30  3259               	rrcf	(??___fltol+1)^0,f,c
  2804   002A32  3258               	rrcf	??___fltol^0,f,c
  2805   002A34                     u8030:
  2806   002A34  2EE8               	decfsz	wreg,f,c
  2807   002A36  EF15  F015         	goto	u8035
  2808   002A3A  5058               	movf	??___fltol^0,w,c
  2809   002A3C  6E5C               	movwf	___fltol@sign1^0,c
  2810   002A3E  8E56               	bsf	(___fltol@f1+2)^0,7,c
  2811   002A40  0EFF               	movlw	255
  2812   002A42  1654               	andwf	___fltol@f1^0,f,c
  2813   002A44  0EFF               	movlw	255
  2814   002A46  1655               	andwf	(___fltol@f1+1)^0,f,c
  2815   002A48  0EFF               	movlw	255
  2816   002A4A  1656               	andwf	(___fltol@f1+2)^0,f,c
  2817   002A4C  0E00               	movlw	0
  2818   002A4E  1657               	andwf	(___fltol@f1+3)^0,f,c
  2819   002A50  0E96               	movlw	150
  2820   002A52  5E5D               	subwf	___fltol@exp1^0,f,c
  2821   002A54  BE5D               	btfsc	___fltol@exp1^0,7,c
  2822   002A56  EF31  F015         	goto	u8040
  2823   002A5A  EF2F  F015         	goto	u8041
  2824   002A5E                     u8041:
  2825   002A5E  EF47  F015         	goto	l7899
  2826   002A62                     u8040:
  2827   002A62  505D               	movf	___fltol@exp1^0,w,c
  2828   002A64  0A80               	xorlw	128
  2829   002A66  0F97               	addlw	151
  2830   002A68  B0D8               	btfsc	status,0,c
  2831   002A6A  EF39  F015         	goto	u8051
  2832   002A6E  EF3B  F015         	goto	u8050
  2833   002A72                     u8051:
  2834   002A72  EF3D  F015         	goto	l7895
  2835   002A76                     u8050:
  2836   002A76  EF00  F015         	goto	l7875
  2837   002A7A                     l7895:
  2838   002A7A  90D8               	bcf	status,0,c
  2839   002A7C  3257               	rrcf	(___fltol@f1+3)^0,f,c
  2840   002A7E  3256               	rrcf	(___fltol@f1+2)^0,f,c
  2841   002A80  3255               	rrcf	(___fltol@f1+1)^0,f,c
  2842   002A82  3254               	rrcf	___fltol@f1^0,f,c
  2843   002A84  3E5D               	incfsz	___fltol@exp1^0,f,c
  2844   002A86  EF3D  F015         	goto	l7895
  2845   002A8A  EF5F  F015         	goto	l7909
  2846   002A8E                     l7899:
  2847   002A8E  0E1F               	movlw	31
  2848   002A90  645D               	cpfsgt	___fltol@exp1^0,c
  2849   002A92  EF4D  F015         	goto	u8061
  2850   002A96  EF4F  F015         	goto	u8060
  2851   002A9A                     u8061:
  2852   002A9A  EF57  F015         	goto	l7907
  2853   002A9E                     u8060:
  2854   002A9E  EF00  F015         	goto	l7875
  2855   002AA2                     l7905:
  2856   002AA2  90D8               	bcf	status,0,c
  2857   002AA4  3654               	rlcf	___fltol@f1^0,f,c
  2858   002AA6  3655               	rlcf	(___fltol@f1+1)^0,f,c
  2859   002AA8  3656               	rlcf	(___fltol@f1+2)^0,f,c
  2860   002AAA  3657               	rlcf	(___fltol@f1+3)^0,f,c
  2861   002AAC  065D               	decf	___fltol@exp1^0,f,c
  2862   002AAE                     l7907:
  2863   002AAE  505D               	movf	___fltol@exp1^0,w,c
  2864   002AB0  A4D8               	btfss	status,2,c
  2865   002AB2  EF5D  F015         	goto	u8071
  2866   002AB6  EF5F  F015         	goto	u8070
  2867   002ABA                     u8071:
  2868   002ABA  EF51  F015         	goto	l7905
  2869   002ABE                     u8070:
  2870   002ABE                     l7909:
  2871   002ABE  505C               	movf	___fltol@sign1^0,w,c
  2872   002AC0  B4D8               	btfsc	status,2,c
  2873   002AC2  EF65  F015         	goto	u8081
  2874   002AC6  EF67  F015         	goto	u8080
  2875   002ACA                     u8081:
  2876   002ACA  EF6F  F015         	goto	l7913
  2877   002ACE                     u8080:
  2878   002ACE  1E57               	comf	(___fltol@f1+3)^0,f,c
  2879   002AD0  1E56               	comf	(___fltol@f1+2)^0,f,c
  2880   002AD2  1E55               	comf	(___fltol@f1+1)^0,f,c
  2881   002AD4  6C54               	negf	___fltol@f1^0,c
  2882   002AD6  0E00               	movlw	0
  2883   002AD8  2255               	addwfc	(___fltol@f1+1)^0,f,c
  2884   002ADA  2256               	addwfc	(___fltol@f1+2)^0,f,c
  2885   002ADC  2257               	addwfc	(___fltol@f1+3)^0,f,c
  2886   002ADE                     l7913:
  2887   002ADE  C054  F054         	movff	___fltol@f1,?___fltol
  2888   002AE2  C055  F055         	movff	___fltol@f1+1,?___fltol+1
  2889   002AE6  C056  F056         	movff	___fltol@f1+2,?___fltol+2
  2890   002AEA  C057  F057         	movff	___fltol@f1+3,?___fltol+3
  2891   002AEE                     l1620:
  2892   002AEE  0012               	return		;funcret
  2893   002AF0                     __end_of___fltol:
  2894                           	callstack 0
  2895                           
  2896 ;; *************** function ___flmul *****************
  2897 ;; Defined at:
  2898 ;;		line 8 in file "D:\Embeded-Compiler\pic\sources\c99\common\sprcmul.c"
  2899 ;; Parameters:    Size  Location     Type
  2900 ;;  b               4   42[COMRAM] long 
  2901 ;;  a               4   46[COMRAM] long 
  2902 ;; Auto vars:     Size  Location     Type
  2903 ;;  prod            4   61[COMRAM] struct .
  2904 ;;  grs             4   56[COMRAM] unsigned long 
  2905 ;;  temp            2   65[COMRAM] struct .
  2906 ;;  bexp            1   60[COMRAM] unsigned char 
  2907 ;;  aexp            1   55[COMRAM] unsigned char 
  2908 ;;  sign            1   54[COMRAM] unsigned char 
  2909 ;; Return value:  Size  Location     Type
  2910 ;;                  4   42[COMRAM] unsigned char 
  2911 ;; Registers used:
  2912 ;;		wreg, status,2, status,0, prodl, prodh
  2913 ;; Tracked objects:
  2914 ;;		On entry : 0/0
  2915 ;;		On exit  : 0/0
  2916 ;;		Unchanged: 0/0
  2917 ;; Data sizes:     COMRAM   BANK0   BANK1   BANK2   BANK3   BANK4   BANK5   BANK6   BANK7   BANK8   BANK9  BANK10  BANK1
      +1  BANK12  BANK13  BANK14  BANK15
  2918 ;;      Params:         8       0       0       0       0       0       0       0       0       0       0       0       
      +0       0       0       0       0
  2919 ;;      Locals:        13       0       0       0       0       0       0       0       0       0       0       0       
      +0       0       0       0       0
  2920 ;;      Temps:          4       0       0       0       0       0       0       0       0       0       0       0       
      +0       0       0       0       0
  2921 ;;      Totals:        25       0       0       0       0       0       0       0       0       0       0       0       
      +0       0       0       0       0
  2922 ;;Total ram usage:       25 bytes
  2923 ;; Hardware stack levels used: 1
  2924 ;; Hardware stack levels required when called: 3
  2925 ;; This function calls:
  2926 ;;		Nothing
  2927 ;; This function is called by:
  2928 ;;		_CCP_PWM_Init
  2929 ;;		_CCP_PWM_Set_Duty
  2930 ;; This function uses a non-reentrant model
  2931 ;;
  2932                           
  2933                           	psect	text10
  2934   0014C8                     __ptext10:
  2935                           	callstack 0
  2936   0014C8                     ___flmul:
  2937                           	callstack 26
  2938   0014C8  502E               	movf	(___flmul@b+3)^0,w,c
  2939   0014CA  0B80               	andlw	128
  2940   0014CC  6E37               	movwf	___flmul@sign^0,c
  2941   0014CE  502E               	movf	(___flmul@b+3)^0,w,c
  2942   0014D0  242E               	addwf	(___flmul@b+3)^0,w,c
  2943   0014D2  6E3D               	movwf	___flmul@bexp^0,c
  2944   0014D4  AE2D               	btfss	(___flmul@b+2)^0,7,c
  2945   0014D6  EF6F  F00A         	goto	u7831
  2946   0014DA  EF71  F00A         	goto	u7830
  2947   0014DE                     u7831:
  2948   0014DE  EF72  F00A         	goto	l7749
  2949   0014E2                     u7830:
  2950   0014E2  803D               	bsf	___flmul@bexp^0,0,c
  2951   0014E4                     l7749:
  2952   0014E4  503D               	movf	___flmul@bexp^0,w,c
  2953   0014E6  B4D8               	btfsc	status,2,c
  2954   0014E8  EF78  F00A         	goto	u7841
  2955   0014EC  EF7A  F00A         	goto	u7840
  2956   0014F0                     u7841:
  2957   0014F0  EF8D  F00A         	goto	l7757
  2958   0014F4                     u7840:
  2959   0014F4  283D               	incf	___flmul@bexp^0,w,c
  2960   0014F6  A4D8               	btfss	status,2,c
  2961   0014F8  EF80  F00A         	goto	u7851
  2962   0014FC  EF82  F00A         	goto	u7850
  2963   001500                     u7851:
  2964   001500  EF8A  F00A         	goto	l7755
  2965   001504                     u7850:
  2966   001504  0E00               	movlw	0
  2967   001506  6E2B               	movwf	___flmul@b^0,c
  2968   001508  0E00               	movlw	0
  2969   00150A  6E2C               	movwf	(___flmul@b+1)^0,c
  2970   00150C  0E00               	movlw	0
  2971   00150E  6E2D               	movwf	(___flmul@b+2)^0,c
  2972   001510  0E00               	movlw	0
  2973   001512  6E2E               	movwf	(___flmul@b+3)^0,c
  2974   001514                     l7755:
  2975   001514  8E2D               	bsf	(___flmul@b+2)^0,7,c
  2976   001516  EF95  F00A         	goto	l7759
  2977   00151A                     l7757:
  2978   00151A  0E00               	movlw	0
  2979   00151C  6E2B               	movwf	___flmul@b^0,c
  2980   00151E  0E00               	movlw	0
  2981   001520  6E2C               	movwf	(___flmul@b+1)^0,c
  2982   001522  0E00               	movlw	0
  2983   001524  6E2D               	movwf	(___flmul@b+2)^0,c
  2984   001526  0E00               	movlw	0
  2985   001528  6E2E               	movwf	(___flmul@b+3)^0,c
  2986   00152A                     l7759:
  2987   00152A  5032               	movf	(___flmul@a+3)^0,w,c
  2988   00152C  0B80               	andlw	128
  2989   00152E  1A37               	xorwf	___flmul@sign^0,f,c
  2990   001530  5032               	movf	(___flmul@a+3)^0,w,c
  2991   001532  2432               	addwf	(___flmul@a+3)^0,w,c
  2992   001534  6E38               	movwf	___flmul@aexp^0,c
  2993   001536  AE31               	btfss	(___flmul@a+2)^0,7,c
  2994   001538  EFA0  F00A         	goto	u7861
  2995   00153C  EFA2  F00A         	goto	u7860
  2996   001540                     u7861:
  2997   001540  EFA3  F00A         	goto	l7767
  2998   001544                     u7860:
  2999   001544  8038               	bsf	___flmul@aexp^0,0,c
  3000   001546                     l7767:
  3001   001546  5038               	movf	___flmul@aexp^0,w,c
  3002   001548  B4D8               	btfsc	status,2,c
  3003   00154A  EFA9  F00A         	goto	u7871
  3004   00154E  EFAB  F00A         	goto	u7870
  3005   001552                     u7871:
  3006   001552  EFBE  F00A         	goto	l7775
  3007   001556                     u7870:
  3008   001556  2838               	incf	___flmul@aexp^0,w,c
  3009   001558  A4D8               	btfss	status,2,c
  3010   00155A  EFB1  F00A         	goto	u7881
  3011   00155E  EFB3  F00A         	goto	u7880
  3012   001562                     u7881:
  3013   001562  EFBB  F00A         	goto	l7773
  3014   001566                     u7880:
  3015   001566  0E00               	movlw	0
  3016   001568  6E2F               	movwf	___flmul@a^0,c
  3017   00156A  0E00               	movlw	0
  3018   00156C  6E30               	movwf	(___flmul@a+1)^0,c
  3019   00156E  0E00               	movlw	0
  3020   001570  6E31               	movwf	(___flmul@a+2)^0,c
  3021   001572  0E00               	movlw	0
  3022   001574  6E32               	movwf	(___flmul@a+3)^0,c
  3023   001576                     l7773:
  3024   001576  8E31               	bsf	(___flmul@a+2)^0,7,c
  3025   001578  EFC6  F00A         	goto	l1937
  3026   00157C                     l7775:
  3027   00157C  0E00               	movlw	0
  3028   00157E  6E2F               	movwf	___flmul@a^0,c
  3029   001580  0E00               	movlw	0
  3030   001582  6E30               	movwf	(___flmul@a+1)^0,c
  3031   001584  0E00               	movlw	0
  3032   001586  6E31               	movwf	(___flmul@a+2)^0,c
  3033   001588  0E00               	movlw	0
  3034   00158A  6E32               	movwf	(___flmul@a+3)^0,c
  3035   00158C                     l1937:
  3036   00158C  5038               	movf	___flmul@aexp^0,w,c
  3037   00158E  B4D8               	btfsc	status,2,c
  3038   001590  EFCC  F00A         	goto	u7891
  3039   001594  EFCE  F00A         	goto	u7890
  3040   001598                     u7891:
  3041   001598  EFD6  F00A         	goto	l7779
  3042   00159C                     u7890:
  3043   00159C  503D               	movf	___flmul@bexp^0,w,c
  3044   00159E  A4D8               	btfss	status,2,c
  3045   0015A0  EFD4  F00A         	goto	u7901
  3046   0015A4  EFD6  F00A         	goto	u7900
  3047   0015A8                     u7901:
  3048   0015A8  EFE0  F00A         	goto	l7783
  3049   0015AC                     u7900:
  3050   0015AC                     l7779:
  3051   0015AC  0E00               	movlw	0
  3052   0015AE  6E2B               	movwf	?___flmul^0,c
  3053   0015B0  0E00               	movlw	0
  3054   0015B2  6E2C               	movwf	(?___flmul+1)^0,c
  3055   0015B4  0E00               	movlw	0
  3056   0015B6  6E2D               	movwf	(?___flmul+2)^0,c
  3057   0015B8  0E00               	movlw	0
  3058   0015BA  6E2E               	movwf	(?___flmul+3)^0,c
  3059   0015BC  EF78  F00C         	goto	l1941
  3060   0015C0                     l7783:
  3061   0015C0  5031               	movf	(___flmul@a+2)^0,w,c
  3062   0015C2  022B               	mulwf	___flmul@b^0,c
  3063   0015C4  CFF3 F042          	movff	prodl,___flmul@temp
  3064   0015C8  CFF4 F043          	movff	prodh,___flmul@temp+1
  3065   0015CC  5042               	movf	___flmul@temp^0,w,c
  3066   0015CE  6E39               	movwf	___flmul@grs^0,c
  3067   0015D0  6A3A               	clrf	(___flmul@grs+1)^0,c
  3068   0015D2  6A3B               	clrf	(___flmul@grs+2)^0,c
  3069   0015D4  6A3C               	clrf	(___flmul@grs+3)^0,c
  3070   0015D6  5043               	movf	(___flmul@temp+1)^0,w,c
  3071   0015D8  6E3E               	movwf	___flmul@prod^0,c
  3072   0015DA  6A3F               	clrf	(___flmul@prod+1)^0,c
  3073   0015DC  6A40               	clrf	(___flmul@prod+2)^0,c
  3074   0015DE  6A41               	clrf	(___flmul@prod+3)^0,c
  3075   0015E0  5030               	movf	(___flmul@a+1)^0,w,c
  3076   0015E2  022C               	mulwf	(___flmul@b+1)^0,c
  3077   0015E4  CFF3 F042          	movff	prodl,___flmul@temp
  3078   0015E8  CFF4 F043          	movff	prodh,___flmul@temp+1
  3079   0015EC  5042               	movf	___flmul@temp^0,w,c
  3080   0015EE  2639               	addwf	___flmul@grs^0,f,c
  3081   0015F0  0E00               	movlw	0
  3082   0015F2  223A               	addwfc	(___flmul@grs+1)^0,f,c
  3083   0015F4  223B               	addwfc	(___flmul@grs+2)^0,f,c
  3084   0015F6  223C               	addwfc	(___flmul@grs+3)^0,f,c
  3085   0015F8  5043               	movf	(___flmul@temp+1)^0,w,c
  3086   0015FA  263E               	addwf	___flmul@prod^0,f,c
  3087   0015FC  0E00               	movlw	0
  3088   0015FE  223F               	addwfc	(___flmul@prod+1)^0,f,c
  3089   001600  2240               	addwfc	(___flmul@prod+2)^0,f,c
  3090   001602  2241               	addwfc	(___flmul@prod+3)^0,f,c
  3091   001604  502F               	movf	___flmul@a^0,w,c
  3092   001606  022D               	mulwf	(___flmul@b+2)^0,c
  3093   001608  CFF3 F042          	movff	prodl,___flmul@temp
  3094   00160C  CFF4 F043          	movff	prodh,___flmul@temp+1
  3095   001610  5042               	movf	___flmul@temp^0,w,c
  3096   001612  2639               	addwf	___flmul@grs^0,f,c
  3097   001614  0E00               	movlw	0
  3098   001616  223A               	addwfc	(___flmul@grs+1)^0,f,c
  3099   001618  223B               	addwfc	(___flmul@grs+2)^0,f,c
  3100   00161A  223C               	addwfc	(___flmul@grs+3)^0,f,c
  3101   00161C  5043               	movf	(___flmul@temp+1)^0,w,c
  3102   00161E  263E               	addwf	___flmul@prod^0,f,c
  3103   001620  0E00               	movlw	0
  3104   001622  223F               	addwfc	(___flmul@prod+1)^0,f,c
  3105   001624  2240               	addwfc	(___flmul@prod+2)^0,f,c
  3106   001626  2241               	addwfc	(___flmul@prod+3)^0,f,c
  3107   001628  C03B  F03C         	movff	___flmul@grs+2,___flmul@grs+3
  3108   00162C  C03A  F03B         	movff	___flmul@grs+1,___flmul@grs+2
  3109   001630  C039  F03A         	movff	___flmul@grs,___flmul@grs+1
  3110   001634  6A39               	clrf	___flmul@grs^0,c
  3111   001636  502F               	movf	___flmul@a^0,w,c
  3112   001638  022C               	mulwf	(___flmul@b+1)^0,c
  3113   00163A  CFF3 F042          	movff	prodl,___flmul@temp
  3114   00163E  CFF4 F043          	movff	prodh,___flmul@temp+1
  3115   001642  5042               	movf	___flmul@temp^0,w,c
  3116   001644  2639               	addwf	___flmul@grs^0,f,c
  3117   001646  5043               	movf	(___flmul@temp+1)^0,w,c
  3118   001648  223A               	addwfc	(___flmul@grs+1)^0,f,c
  3119   00164A  0E00               	movlw	0
  3120   00164C  223B               	addwfc	(___flmul@grs+2)^0,f,c
  3121   00164E  0E00               	movlw	0
  3122   001650  223C               	addwfc	(___flmul@grs+3)^0,f,c
  3123   001652  5030               	movf	(___flmul@a+1)^0,w,c
  3124   001654  022B               	mulwf	___flmul@b^0,c
  3125   001656  CFF3 F042          	movff	prodl,___flmul@temp
  3126   00165A  CFF4 F043          	movff	prodh,___flmul@temp+1
  3127   00165E  5042               	movf	___flmul@temp^0,w,c
  3128   001660  2639               	addwf	___flmul@grs^0,f,c
  3129   001662  5043               	movf	(___flmul@temp+1)^0,w,c
  3130   001664  223A               	addwfc	(___flmul@grs+1)^0,f,c
  3131   001666  0E00               	movlw	0
  3132   001668  223B               	addwfc	(___flmul@grs+2)^0,f,c
  3133   00166A  0E00               	movlw	0
  3134   00166C  223C               	addwfc	(___flmul@grs+3)^0,f,c
  3135   00166E  C03B  F03C         	movff	___flmul@grs+2,___flmul@grs+3
  3136   001672  C03A  F03B         	movff	___flmul@grs+1,___flmul@grs+2
  3137   001676  C039  F03A         	movff	___flmul@grs,___flmul@grs+1
  3138   00167A  6A39               	clrf	___flmul@grs^0,c
  3139   00167C  502F               	movf	___flmul@a^0,w,c
  3140   00167E  022B               	mulwf	___flmul@b^0,c
  3141   001680  CFF3 F042          	movff	prodl,___flmul@temp
  3142   001684  CFF4 F043          	movff	prodh,___flmul@temp+1
  3143   001688  5042               	movf	___flmul@temp^0,w,c
  3144   00168A  2639               	addwf	___flmul@grs^0,f,c
  3145   00168C  5043               	movf	(___flmul@temp+1)^0,w,c
  3146   00168E  223A               	addwfc	(___flmul@grs+1)^0,f,c
  3147   001690  0E00               	movlw	0
  3148   001692  223B               	addwfc	(___flmul@grs+2)^0,f,c
  3149   001694  0E00               	movlw	0
  3150   001696  223C               	addwfc	(___flmul@grs+3)^0,f,c
  3151   001698  5031               	movf	(___flmul@a+2)^0,w,c
  3152   00169A  022C               	mulwf	(___flmul@b+1)^0,c
  3153   00169C  CFF3 F042          	movff	prodl,___flmul@temp
  3154   0016A0  CFF4 F043          	movff	prodh,___flmul@temp+1
  3155   0016A4  5042               	movf	___flmul@temp^0,w,c
  3156   0016A6  263E               	addwf	___flmul@prod^0,f,c
  3157   0016A8  5043               	movf	(___flmul@temp+1)^0,w,c
  3158   0016AA  223F               	addwfc	(___flmul@prod+1)^0,f,c
  3159   0016AC  0E00               	movlw	0
  3160   0016AE  2240               	addwfc	(___flmul@prod+2)^0,f,c
  3161   0016B0  0E00               	movlw	0
  3162   0016B2  2241               	addwfc	(___flmul@prod+3)^0,f,c
  3163   0016B4  5030               	movf	(___flmul@a+1)^0,w,c
  3164   0016B6  022D               	mulwf	(___flmul@b+2)^0,c
  3165   0016B8  CFF3 F042          	movff	prodl,___flmul@temp
  3166   0016BC  CFF4 F043          	movff	prodh,___flmul@temp+1
  3167   0016C0  5042               	movf	___flmul@temp^0,w,c
  3168   0016C2  263E               	addwf	___flmul@prod^0,f,c
  3169   0016C4  5043               	movf	(___flmul@temp+1)^0,w,c
  3170   0016C6  223F               	addwfc	(___flmul@prod+1)^0,f,c
  3171   0016C8  0E00               	movlw	0
  3172   0016CA  2240               	addwfc	(___flmul@prod+2)^0,f,c
  3173   0016CC  0E00               	movlw	0
  3174   0016CE  2241               	addwfc	(___flmul@prod+3)^0,f,c
  3175   0016D0  5031               	movf	(___flmul@a+2)^0,w,c
  3176   0016D2  022D               	mulwf	(___flmul@b+2)^0,c
  3177   0016D4  CFF3 F042          	movff	prodl,___flmul@temp
  3178   0016D8  CFF4 F043          	movff	prodh,___flmul@temp+1
  3179   0016DC  5042               	movf	___flmul@temp^0,w,c
  3180   0016DE  6E33               	movwf	??___flmul^0,c
  3181   0016E0  5043               	movf	(___flmul@temp+1)^0,w,c
  3182   0016E2  6E34               	movwf	(??___flmul+1)^0,c
  3183   0016E4  6A35               	clrf	(??___flmul+2)^0,c
  3184   0016E6  6A36               	clrf	(??___flmul+3)^0,c
  3185   0016E8  C035  F036         	movff	??___flmul+2,??___flmul+3
  3186   0016EC  C034  F035         	movff	??___flmul+1,??___flmul+2
  3187   0016F0  C033  F034         	movff	??___flmul,??___flmul+1
  3188   0016F4  6A33               	clrf	??___flmul^0,c
  3189   0016F6  5033               	movf	??___flmul^0,w,c
  3190   0016F8  263E               	addwf	___flmul@prod^0,f,c
  3191   0016FA  5034               	movf	(??___flmul+1)^0,w,c
  3192   0016FC  223F               	addwfc	(___flmul@prod+1)^0,f,c
  3193   0016FE  5035               	movf	(??___flmul+2)^0,w,c
  3194   001700  2240               	addwfc	(___flmul@prod+2)^0,f,c
  3195   001702  5036               	movf	(??___flmul+3)^0,w,c
  3196   001704  2241               	addwfc	(___flmul@prod+3)^0,f,c
  3197   001706  C039  F033         	movff	___flmul@grs,??___flmul
  3198   00170A  C03A  F034         	movff	___flmul@grs+1,??___flmul+1
  3199   00170E  C03B  F035         	movff	___flmul@grs+2,??___flmul+2
  3200   001712  C03C  F036         	movff	___flmul@grs+3,??___flmul+3
  3201   001716  0E19               	movlw	25
  3202   001718  EF93  F00B         	goto	u7910
  3203   00171C                     u7915:
  3204   00171C  90D8               	bcf	status,0,c
  3205   00171E  3236               	rrcf	(??___flmul+3)^0,f,c
  3206   001720  3235               	rrcf	(??___flmul+2)^0,f,c
  3207   001722  3234               	rrcf	(??___flmul+1)^0,f,c
  3208   001724  3233               	rrcf	??___flmul^0,f,c
  3209   001726                     u7910:
  3210   001726  2EE8               	decfsz	wreg,f,c
  3211   001728  EF8E  F00B         	goto	u7915
  3212   00172C  5033               	movf	??___flmul^0,w,c
  3213   00172E  263E               	addwf	___flmul@prod^0,f,c
  3214   001730  5034               	movf	(??___flmul+1)^0,w,c
  3215   001732  223F               	addwfc	(___flmul@prod+1)^0,f,c
  3216   001734  5035               	movf	(??___flmul+2)^0,w,c
  3217   001736  2240               	addwfc	(___flmul@prod+2)^0,f,c
  3218   001738  5036               	movf	(??___flmul+3)^0,w,c
  3219   00173A  2241               	addwfc	(___flmul@prod+3)^0,f,c
  3220   00173C  C03B  F03C         	movff	___flmul@grs+2,___flmul@grs+3
  3221   001740  C03A  F03B         	movff	___flmul@grs+1,___flmul@grs+2
  3222   001744  C039  F03A         	movff	___flmul@grs,___flmul@grs+1
  3223   001748  6A39               	clrf	___flmul@grs^0,c
  3224   00174A  5038               	movf	___flmul@aexp^0,w,c
  3225   00174C  C03D  F033         	movff	___flmul@bexp,??___flmul
  3226   001750  6A34               	clrf	(??___flmul+1)^0,c
  3227   001752  2633               	addwf	??___flmul^0,f,c
  3228   001754  0E00               	movlw	0
  3229   001756  2234               	addwfc	(??___flmul+1)^0,f,c
  3230   001758  0E82               	movlw	130
  3231   00175A  2433               	addwf	??___flmul^0,w,c
  3232   00175C  6E42               	movwf	___flmul@temp^0,c
  3233   00175E  0EFF               	movlw	255
  3234   001760  2034               	addwfc	(??___flmul+1)^0,w,c
  3235   001762  6E43               	movwf	(___flmul@temp+1)^0,c
  3236   001764  EFC9  F00B         	goto	l7831
  3237   001768                     l7825:
  3238   001768  90D8               	bcf	status,0,c
  3239   00176A  363E               	rlcf	___flmul@prod^0,f,c
  3240   00176C  363F               	rlcf	(___flmul@prod+1)^0,f,c
  3241   00176E  3640               	rlcf	(___flmul@prod+2)^0,f,c
  3242   001770  3641               	rlcf	(___flmul@prod+3)^0,f,c
  3243   001772  AE3C               	btfss	(___flmul@grs+3)^0,7,c
  3244   001774  EFBE  F00B         	goto	u7921
  3245   001778  EFC0  F00B         	goto	u7920
  3246   00177C                     u7921:
  3247   00177C  EFC1  F00B         	goto	l1944
  3248   001780                     u7920:
  3249   001780  803E               	bsf	___flmul@prod^0,0,c
  3250   001782                     l1944:
  3251   001782  90D8               	bcf	status,0,c
  3252   001784  3639               	rlcf	___flmul@grs^0,f,c
  3253   001786  363A               	rlcf	(___flmul@grs+1)^0,f,c
  3254   001788  363B               	rlcf	(___flmul@grs+2)^0,f,c
  3255   00178A  363C               	rlcf	(___flmul@grs+3)^0,f,c
  3256   00178C  0642               	decf	___flmul@temp^0,f,c
  3257   00178E  A0D8               	btfss	status,0,c
  3258   001790  0643               	decf	(___flmul@temp+1)^0,f,c
  3259   001792                     l7831:
  3260   001792  AE40               	btfss	(___flmul@prod+2)^0,7,c
  3261   001794  EFCE  F00B         	goto	u7931
  3262   001798  EFD0  F00B         	goto	u7930
  3263   00179C                     u7931:
  3264   00179C  EFB4  F00B         	goto	l7825
  3265   0017A0                     u7930:
  3266   0017A0  0E00               	movlw	0
  3267   0017A2  6E38               	movwf	___flmul@aexp^0,c
  3268   0017A4  AE3C               	btfss	(___flmul@grs+3)^0,7,c
  3269   0017A6  EFD7  F00B         	goto	u7941
  3270   0017AA  EFD9  F00B         	goto	u7940
  3271   0017AE                     u7941:
  3272   0017AE  EFFD  F00B         	goto	l1946
  3273   0017B2                     u7940:
  3274   0017B2  0EFF               	movlw	255
  3275   0017B4  1439               	andwf	___flmul@grs^0,w,c
  3276   0017B6  6E33               	movwf	??___flmul^0,c
  3277   0017B8  0EFF               	movlw	255
  3278   0017BA  143A               	andwf	(___flmul@grs+1)^0,w,c
  3279   0017BC  6E34               	movwf	(??___flmul+1)^0,c
  3280   0017BE  0EFF               	movlw	255
  3281   0017C0  143B               	andwf	(___flmul@grs+2)^0,w,c
  3282   0017C2  6E35               	movwf	(??___flmul+2)^0,c
  3283   0017C4  0E7F               	movlw	127
  3284   0017C6  143C               	andwf	(___flmul@grs+3)^0,w,c
  3285   0017C8  6E36               	movwf	(??___flmul+3)^0,c
  3286   0017CA  5033               	movf	??___flmul^0,w,c
  3287   0017CC  1034               	iorwf	(??___flmul+1)^0,w,c
  3288   0017CE  1035               	iorwf	(??___flmul+2)^0,w,c
  3289   0017D0  1036               	iorwf	(??___flmul+3)^0,w,c
  3290   0017D2  B4D8               	btfsc	status,2,c
  3291   0017D4  EFEE  F00B         	goto	u7951
  3292   0017D8  EFF0  F00B         	goto	u7950
  3293   0017DC                     u7951:
  3294   0017DC  EFF4  F00B         	goto	l1947
  3295   0017E0                     u7950:
  3296   0017E0                     l7839:
  3297   0017E0  0E01               	movlw	1
  3298   0017E2  6E38               	movwf	___flmul@aexp^0,c
  3299   0017E4  EFFD  F00B         	goto	l1946
  3300   0017E8                     l1947:
  3301   0017E8  A03E               	btfss	___flmul@prod^0,0,c
  3302   0017EA  EFF9  F00B         	goto	u7961
  3303   0017EE  EFFB  F00B         	goto	u7960
  3304   0017F2                     u7961:
  3305   0017F2  EFFD  F00B         	goto	l1946
  3306   0017F6                     u7960:
  3307   0017F6  EFF0  F00B         	goto	l7839
  3308   0017FA                     l1946:
  3309   0017FA  5038               	movf	___flmul@aexp^0,w,c
  3310   0017FC  B4D8               	btfsc	status,2,c
  3311   0017FE  EF03  F00C         	goto	u7971
  3312   001802  EF05  F00C         	goto	u7970
  3313   001806                     u7971:
  3314   001806  EF29  F00C         	goto	l7851
  3315   00180A                     u7970:
  3316   00180A  0E01               	movlw	1
  3317   00180C  263E               	addwf	___flmul@prod^0,f,c
  3318   00180E  0E00               	movlw	0
  3319   001810  223F               	addwfc	(___flmul@prod+1)^0,f,c
  3320   001812  2240               	addwfc	(___flmul@prod+2)^0,f,c
  3321   001814  2241               	addwfc	(___flmul@prod+3)^0,f,c
  3322   001816  A041               	btfss	(___flmul@prod+3)^0,0,c
  3323   001818  EF10  F00C         	goto	u7981
  3324   00181C  EF12  F00C         	goto	u7980
  3325   001820                     u7981:
  3326   001820  EF29  F00C         	goto	l7851
  3327   001824                     u7980:
  3328   001824  C03E  F033         	movff	___flmul@prod,??___flmul
  3329   001828  C03F  F034         	movff	___flmul@prod+1,??___flmul+1
  3330   00182C  C040  F035         	movff	___flmul@prod+2,??___flmul+2
  3331   001830  C041  F036         	movff	___flmul@prod+3,??___flmul+3
  3332   001834  3436               	rlcf	(??___flmul+3)^0,w,c
  3333   001836  3236               	rrcf	(??___flmul+3)^0,f,c
  3334   001838  3235               	rrcf	(??___flmul+2)^0,f,c
  3335   00183A  3234               	rrcf	(??___flmul+1)^0,f,c
  3336   00183C  3233               	rrcf	??___flmul^0,f,c
  3337   00183E  C033  F03E         	movff	??___flmul,___flmul@prod
  3338   001842  C034  F03F         	movff	??___flmul+1,___flmul@prod+1
  3339   001846  C035  F040         	movff	??___flmul+2,___flmul@prod+2
  3340   00184A  C036  F041         	movff	??___flmul+3,___flmul@prod+3
  3341   00184E  4A42               	infsnz	___flmul@temp^0,f,c
  3342   001850  2A43               	incf	(___flmul@temp+1)^0,f,c
  3343   001852                     l7851:
  3344   001852  BE43               	btfsc	(___flmul@temp+1)^0,7,c
  3345   001854  EF34  F00C         	goto	u7991
  3346   001858  5043               	movf	(___flmul@temp+1)^0,w,c
  3347   00185A  E108               	bnz	u7990
  3348   00185C  2842               	incf	___flmul@temp^0,w,c
  3349   00185E  A0D8               	btfss	status,0,c
  3350   001860  EF34  F00C         	goto	u7991
  3351   001864  EF36  F00C         	goto	u7990
  3352   001868                     u7991:
  3353   001868  EF40  F00C         	goto	l7855
  3354   00186C                     u7990:
  3355   00186C  0E00               	movlw	0
  3356   00186E  6E3E               	movwf	___flmul@prod^0,c
  3357   001870  0E00               	movlw	0
  3358   001872  6E3F               	movwf	(___flmul@prod+1)^0,c
  3359   001874  0E80               	movlw	128
  3360   001876  6E40               	movwf	(___flmul@prod+2)^0,c
  3361   001878  0E7F               	movlw	127
  3362   00187A  6E41               	movwf	(___flmul@prod+3)^0,c
  3363   00187C  EF6E  F00C         	goto	l7867
  3364   001880                     l7855:
  3365   001880  BE43               	btfsc	(___flmul@temp+1)^0,7,c
  3366   001882  EF4D  F00C         	goto	u8000
  3367   001886  5043               	movf	(___flmul@temp+1)^0,w,c
  3368   001888  E106               	bnz	u8001
  3369   00188A  0442               	decf	___flmul@temp^0,w,c
  3370   00188C  B0D8               	btfsc	status,0,c
  3371   00188E  EF4B  F00C         	goto	u8001
  3372   001892  EF4D  F00C         	goto	u8000
  3373   001896                     u8001:
  3374   001896  EF59  F00C         	goto	l1954
  3375   00189A                     u8000:
  3376   00189A  0E00               	movlw	0
  3377   00189C  6E3E               	movwf	___flmul@prod^0,c
  3378   00189E  0E00               	movlw	0
  3379   0018A0  6E3F               	movwf	(___flmul@prod+1)^0,c
  3380   0018A2  0E00               	movlw	0
  3381   0018A4  6E40               	movwf	(___flmul@prod+2)^0,c
  3382   0018A6  0E00               	movlw	0
  3383   0018A8  6E41               	movwf	(___flmul@prod+3)^0,c
  3384   0018AA  0E00               	movlw	0
  3385   0018AC  6E37               	movwf	___flmul@sign^0,c
  3386   0018AE  EF6E  F00C         	goto	l7867
  3387   0018B2                     l1954:
  3388   0018B2  C042  F03D         	movff	___flmul@temp,___flmul@bexp
  3389   0018B6  0EFF               	movlw	255
  3390   0018B8  163E               	andwf	___flmul@prod^0,f,c
  3391   0018BA  0EFF               	movlw	255
  3392   0018BC  163F               	andwf	(___flmul@prod+1)^0,f,c
  3393   0018BE  0E7F               	movlw	127
  3394   0018C0  1640               	andwf	(___flmul@prod+2)^0,f,c
  3395   0018C2  0E00               	movlw	0
  3396   0018C4  1641               	andwf	(___flmul@prod+3)^0,f,c
  3397   0018C6  A03D               	btfss	___flmul@bexp^0,0,c
  3398   0018C8  EF68  F00C         	goto	u8011
  3399   0018CC  EF6A  F00C         	goto	u8010
  3400   0018D0                     u8011:
  3401   0018D0  EF6B  F00C         	goto	l7865
  3402   0018D4                     u8010:
  3403   0018D4  8E40               	bsf	(___flmul@prod+2)^0,7,c
  3404   0018D6                     l7865:
  3405   0018D6  90D8               	bcf	status,0,c
  3406   0018D8  303D               	rrcf	___flmul@bexp^0,w,c
  3407   0018DA  6E41               	movwf	(___flmul@prod+3)^0,c
  3408   0018DC                     l7867:
  3409   0018DC  5037               	movf	___flmul@sign^0,w,c
  3410   0018DE  1241               	iorwf	(___flmul@prod+3)^0,f,c
  3411   0018E0  C03E  F02B         	movff	___flmul@prod,?___flmul
  3412   0018E4  C03F  F02C         	movff	___flmul@prod+1,?___flmul+1
  3413   0018E8  C040  F02D         	movff	___flmul@prod+2,?___flmul+2
  3414   0018EC  C041  F02E         	movff	___flmul@prod+3,?___flmul+3
  3415   0018F0                     l1941:
  3416   0018F0  0012               	return		;funcret
  3417   0018F2                     __end_of___flmul:
  3418                           	callstack 0
  3419                           
  3420 ;; *************** function ___fldiv *****************
  3421 ;; Defined at:
  3422 ;;		line 11 in file "D:\Embeded-Compiler\pic\sources\c99\common\sprcdiv.c"
  3423 ;; Parameters:    Size  Location     Type
  3424 ;;  b               4   17[COMRAM] unsigned char 
  3425 ;;  a               4   21[COMRAM] unsigned char 
  3426 ;; Auto vars:     Size  Location     Type
  3427 ;;  grs             4   36[COMRAM] unsigned long 
  3428 ;;  rem             4   29[COMRAM] unsigned long 
  3429 ;;  new_exp         2   34[COMRAM] short 
  3430 ;;  aexp            1   41[COMRAM] unsigned char 
  3431 ;;  bexp            1   40[COMRAM] unsigned char 
  3432 ;;  sign            1   33[COMRAM] unsigned char 
  3433 ;; Return value:  Size  Location     Type
  3434 ;;                  4   17[COMRAM] unsigned char 
  3435 ;; Registers used:
  3436 ;;		wreg, status,2, status,0
  3437 ;; Tracked objects:
  3438 ;;		On entry : 0/0
  3439 ;;		On exit  : 0/0
  3440 ;;		Unchanged: 0/0
  3441 ;; Data sizes:     COMRAM   BANK0   BANK1   BANK2   BANK3   BANK4   BANK5   BANK6   BANK7   BANK8   BANK9  BANK10  BANK1
      +1  BANK12  BANK13  BANK14  BANK15
  3442 ;;      Params:         8       0       0       0       0       0       0       0       0       0       0       0       
      +0       0       0       0       0
  3443 ;;      Locals:        13       0       0       0       0       0       0       0       0       0       0       0       
      +0       0       0       0       0
  3444 ;;      Temps:          4       0       0       0       0       0       0       0       0       0       0       0       
      +0       0       0       0       0
  3445 ;;      Totals:        25       0       0       0       0       0       0       0       0       0       0       0       
      +0       0       0       0       0
  3446 ;;Total ram usage:       25 bytes
  3447 ;; Hardware stack levels used: 1
  3448 ;; Hardware stack levels required when called: 3
  3449 ;; This function calls:
  3450 ;;		Nothing
  3451 ;; This function is called by:
  3452 ;;		_CCP_PWM_Init
  3453 ;;		_CCP_PWM_Set_Duty
  3454 ;; This function uses a non-reentrant model
  3455 ;;
  3456                           
  3457                           	psect	text11
  3458   0018F2                     __ptext11:
  3459                           	callstack 0
  3460   0018F2                     ___fldiv:
  3461                           	callstack 26
  3462   0018F2  5015               	movf	(___fldiv@b+3)^0,w,c
  3463   0018F4  0B80               	andlw	128
  3464   0018F6  6E22               	movwf	___fldiv@sign^0,c
  3465   0018F8  5015               	movf	(___fldiv@b+3)^0,w,c
  3466   0018FA  2415               	addwf	(___fldiv@b+3)^0,w,c
  3467   0018FC  6E29               	movwf	___fldiv@bexp^0,c
  3468   0018FE  AE14               	btfss	(___fldiv@b+2)^0,7,c
  3469   001900  EF84  F00C         	goto	u7601
  3470   001904  EF86  F00C         	goto	u7600
  3471   001908                     u7601:
  3472   001908  EF87  F00C         	goto	l7611
  3473   00190C                     u7600:
  3474   00190C  8029               	bsf	___fldiv@bexp^0,0,c
  3475   00190E                     l7611:
  3476   00190E  5029               	movf	___fldiv@bexp^0,w,c
  3477   001910  B4D8               	btfsc	status,2,c
  3478   001912  EF8D  F00C         	goto	u7611
  3479   001916  EF8F  F00C         	goto	u7610
  3480   00191A                     u7611:
  3481   00191A  EFA4  F00C         	goto	l7621
  3482   00191E                     u7610:
  3483   00191E  2829               	incf	___fldiv@bexp^0,w,c
  3484   001920  A4D8               	btfss	status,2,c
  3485   001922  EF95  F00C         	goto	u7621
  3486   001926  EF97  F00C         	goto	u7620
  3487   00192A                     u7621:
  3488   00192A  EF9F  F00C         	goto	l7617
  3489   00192E                     u7620:
  3490   00192E  0E00               	movlw	0
  3491   001930  6E12               	movwf	___fldiv@b^0,c
  3492   001932  0E00               	movlw	0
  3493   001934  6E13               	movwf	(___fldiv@b+1)^0,c
  3494   001936  0E00               	movlw	0
  3495   001938  6E14               	movwf	(___fldiv@b+2)^0,c
  3496   00193A  0E00               	movlw	0
  3497   00193C  6E15               	movwf	(___fldiv@b+3)^0,c
  3498   00193E                     l7617:
  3499   00193E  8E14               	bsf	(___fldiv@b+2)^0,7,c
  3500   001940  0E00               	movlw	0
  3501   001942  6E15               	movwf	(___fldiv@b+3)^0,c
  3502   001944  EFAC  F00C         	goto	l7623
  3503   001948                     l7621:
  3504   001948  0E00               	movlw	0
  3505   00194A  6E12               	movwf	___fldiv@b^0,c
  3506   00194C  0E00               	movlw	0
  3507   00194E  6E13               	movwf	(___fldiv@b+1)^0,c
  3508   001950  0E00               	movlw	0
  3509   001952  6E14               	movwf	(___fldiv@b+2)^0,c
  3510   001954  0E00               	movlw	0
  3511   001956  6E15               	movwf	(___fldiv@b+3)^0,c
  3512   001958                     l7623:
  3513   001958  5019               	movf	(___fldiv@a+3)^0,w,c
  3514   00195A  0B80               	andlw	128
  3515   00195C  1A22               	xorwf	___fldiv@sign^0,f,c
  3516   00195E  5019               	movf	(___fldiv@a+3)^0,w,c
  3517   001960  2419               	addwf	(___fldiv@a+3)^0,w,c
  3518   001962  6E2A               	movwf	___fldiv@aexp^0,c
  3519   001964  AE18               	btfss	(___fldiv@a+2)^0,7,c
  3520   001966  EFB7  F00C         	goto	u7631
  3521   00196A  EFB9  F00C         	goto	u7630
  3522   00196E                     u7631:
  3523   00196E  EFBA  F00C         	goto	l7631
  3524   001972                     u7630:
  3525   001972  802A               	bsf	___fldiv@aexp^0,0,c
  3526   001974                     l7631:
  3527   001974  502A               	movf	___fldiv@aexp^0,w,c
  3528   001976  B4D8               	btfsc	status,2,c
  3529   001978  EFC0  F00C         	goto	u7641
  3530   00197C  EFC2  F00C         	goto	u7640
  3531   001980                     u7641:
  3532   001980  EFD7  F00C         	goto	l7641
  3533   001984                     u7640:
  3534   001984  282A               	incf	___fldiv@aexp^0,w,c
  3535   001986  A4D8               	btfss	status,2,c
  3536   001988  EFC8  F00C         	goto	u7651
  3537   00198C  EFCA  F00C         	goto	u7650
  3538   001990                     u7651:
  3539   001990  EFD2  F00C         	goto	l7637
  3540   001994                     u7650:
  3541   001994  0E00               	movlw	0
  3542   001996  6E16               	movwf	___fldiv@a^0,c
  3543   001998  0E00               	movlw	0
  3544   00199A  6E17               	movwf	(___fldiv@a+1)^0,c
  3545   00199C  0E00               	movlw	0
  3546   00199E  6E18               	movwf	(___fldiv@a+2)^0,c
  3547   0019A0  0E00               	movlw	0
  3548   0019A2  6E19               	movwf	(___fldiv@a+3)^0,c
  3549   0019A4                     l7637:
  3550   0019A4  8E18               	bsf	(___fldiv@a+2)^0,7,c
  3551   0019A6  0E00               	movlw	0
  3552   0019A8  6E19               	movwf	(___fldiv@a+3)^0,c
  3553   0019AA  EFDF  F00C         	goto	l7643
  3554   0019AE                     l7641:
  3555   0019AE  0E00               	movlw	0
  3556   0019B0  6E16               	movwf	___fldiv@a^0,c
  3557   0019B2  0E00               	movlw	0
  3558   0019B4  6E17               	movwf	(___fldiv@a+1)^0,c
  3559   0019B6  0E00               	movlw	0
  3560   0019B8  6E18               	movwf	(___fldiv@a+2)^0,c
  3561   0019BA  0E00               	movlw	0
  3562   0019BC  6E19               	movwf	(___fldiv@a+3)^0,c
  3563   0019BE                     l7643:
  3564   0019BE  5016               	movf	___fldiv@a^0,w,c
  3565   0019C0  1017               	iorwf	(___fldiv@a+1)^0,w,c
  3566   0019C2  1018               	iorwf	(___fldiv@a+2)^0,w,c
  3567   0019C4  1019               	iorwf	(___fldiv@a+3)^0,w,c
  3568   0019C6  A4D8               	btfss	status,2,c
  3569   0019C8  EFE8  F00C         	goto	u7661
  3570   0019CC  EFEA  F00C         	goto	u7660
  3571   0019D0                     u7661:
  3572   0019D0  EF02  F00D         	goto	l7655
  3573   0019D4                     u7660:
  3574   0019D4  0E00               	movlw	0
  3575   0019D6  6E12               	movwf	___fldiv@b^0,c
  3576   0019D8  0E00               	movlw	0
  3577   0019DA  6E13               	movwf	(___fldiv@b+1)^0,c
  3578   0019DC  0E00               	movlw	0
  3579   0019DE  6E14               	movwf	(___fldiv@b+2)^0,c
  3580   0019E0  0E00               	movlw	0
  3581   0019E2  6E15               	movwf	(___fldiv@b+3)^0,c
  3582   0019E4  0E80               	movlw	128
  3583   0019E6  1214               	iorwf	(___fldiv@b+2)^0,f,c
  3584   0019E8  0E7F               	movlw	127
  3585   0019EA  1215               	iorwf	(___fldiv@b+3)^0,f,c
  3586   0019EC                     l7649:
  3587   0019EC  5022               	movf	___fldiv@sign^0,w,c
  3588   0019EE  1215               	iorwf	(___fldiv@b+3)^0,f,c
  3589   0019F0  C012  F012         	movff	___fldiv@b,?___fldiv
  3590   0019F4  C013  F013         	movff	___fldiv@b+1,?___fldiv+1
  3591   0019F8  C014  F014         	movff	___fldiv@b+2,?___fldiv+2
  3592   0019FC  C015  F015         	movff	___fldiv@b+3,?___fldiv+3
  3593   001A00  EF45  F00E         	goto	l1905
  3594   001A04                     l7655:
  3595   001A04  5029               	movf	___fldiv@bexp^0,w,c
  3596   001A06  A4D8               	btfss	status,2,c
  3597   001A08  EF08  F00D         	goto	u7671
  3598   001A0C  EF0A  F00D         	goto	u7670
  3599   001A10                     u7671:
  3600   001A10  EF14  F00D         	goto	l7663
  3601   001A14                     u7670:
  3602   001A14  0E00               	movlw	0
  3603   001A16  6E12               	movwf	?___fldiv^0,c
  3604   001A18  0E00               	movlw	0
  3605   001A1A  6E13               	movwf	(?___fldiv+1)^0,c
  3606   001A1C  0E00               	movlw	0
  3607   001A1E  6E14               	movwf	(?___fldiv+2)^0,c
  3608   001A20  0E00               	movlw	0
  3609   001A22  6E15               	movwf	(?___fldiv+3)^0,c
  3610   001A24  EF45  F00E         	goto	l1905
  3611   001A28                     l7663:
  3612   001A28  502A               	movf	___fldiv@aexp^0,w,c
  3613   001A2A  C029  F01A         	movff	___fldiv@bexp,??___fldiv
  3614   001A2E  6A1B               	clrf	(??___fldiv+1)^0,c
  3615   001A30  5E1A               	subwf	??___fldiv^0,f,c
  3616   001A32  0E00               	movlw	0
  3617   001A34  5A1B               	subwfb	(??___fldiv+1)^0,f,c
  3618   001A36  0E7F               	movlw	127
  3619   001A38  241A               	addwf	??___fldiv^0,w,c
  3620   001A3A  6E23               	movwf	___fldiv@new_exp^0,c
  3621   001A3C  0E00               	movlw	0
  3622   001A3E  201B               	addwfc	(??___fldiv+1)^0,w,c
  3623   001A40  6E24               	movwf	(___fldiv@new_exp+1)^0,c
  3624   001A42  C012  F01E         	movff	___fldiv@b,___fldiv@rem
  3625   001A46  C013  F01F         	movff	___fldiv@b+1,___fldiv@rem+1
  3626   001A4A  C014  F020         	movff	___fldiv@b+2,___fldiv@rem+2
  3627   001A4E  C015  F021         	movff	___fldiv@b+3,___fldiv@rem+3
  3628   001A52  0E00               	movlw	0
  3629   001A54  6E12               	movwf	___fldiv@b^0,c
  3630   001A56  0E00               	movlw	0
  3631   001A58  6E13               	movwf	(___fldiv@b+1)^0,c
  3632   001A5A  0E00               	movlw	0
  3633   001A5C  6E14               	movwf	(___fldiv@b+2)^0,c
  3634   001A5E  0E00               	movlw	0
  3635   001A60  6E15               	movwf	(___fldiv@b+3)^0,c
  3636   001A62  0E00               	movlw	0
  3637   001A64  6E25               	movwf	___fldiv@grs^0,c
  3638   001A66  0E00               	movlw	0
  3639   001A68  6E26               	movwf	(___fldiv@grs+1)^0,c
  3640   001A6A  0E00               	movlw	0
  3641   001A6C  6E27               	movwf	(___fldiv@grs+2)^0,c
  3642   001A6E  0E00               	movlw	0
  3643   001A70  6E28               	movwf	(___fldiv@grs+3)^0,c
  3644   001A72  0E00               	movlw	0
  3645   001A74  6E2A               	movwf	___fldiv@aexp^0,c
  3646   001A76  EF75  F00D         	goto	l1907
  3647   001A7A                     l7673:
  3648   001A7A  502A               	movf	___fldiv@aexp^0,w,c
  3649   001A7C  B4D8               	btfsc	status,2,c
  3650   001A7E  EF43  F00D         	goto	u7681
  3651   001A82  EF45  F00D         	goto	u7680
  3652   001A86                     u7681:
  3653   001A86  EF5C  F00D         	goto	l7681
  3654   001A8A                     u7680:
  3655   001A8A  90D8               	bcf	status,0,c
  3656   001A8C  361E               	rlcf	___fldiv@rem^0,f,c
  3657   001A8E  361F               	rlcf	(___fldiv@rem+1)^0,f,c
  3658   001A90  3620               	rlcf	(___fldiv@rem+2)^0,f,c
  3659   001A92  3621               	rlcf	(___fldiv@rem+3)^0,f,c
  3660   001A94  90D8               	bcf	status,0,c
  3661   001A96  3612               	rlcf	___fldiv@b^0,f,c
  3662   001A98  3613               	rlcf	(___fldiv@b+1)^0,f,c
  3663   001A9A  3614               	rlcf	(___fldiv@b+2)^0,f,c
  3664   001A9C  3615               	rlcf	(___fldiv@b+3)^0,f,c
  3665   001A9E  AE28               	btfss	(___fldiv@grs+3)^0,7,c
  3666   001AA0  EF54  F00D         	goto	u7691
  3667   001AA4  EF56  F00D         	goto	u7690
  3668   001AA8                     u7691:
  3669   001AA8  EF57  F00D         	goto	l1910
  3670   001AAC                     u7690:
  3671   001AAC  8012               	bsf	___fldiv@b^0,0,c
  3672   001AAE                     l1910:
  3673   001AAE  90D8               	bcf	status,0,c
  3674   001AB0  3625               	rlcf	___fldiv@grs^0,f,c
  3675   001AB2  3626               	rlcf	(___fldiv@grs+1)^0,f,c
  3676   001AB4  3627               	rlcf	(___fldiv@grs+2)^0,f,c
  3677   001AB6  3628               	rlcf	(___fldiv@grs+3)^0,f,c
  3678   001AB8                     l7681:
  3679   001AB8  5016               	movf	___fldiv@a^0,w,c
  3680   001ABA  5C1E               	subwf	___fldiv@rem^0,w,c
  3681   001ABC  5017               	movf	(___fldiv@a+1)^0,w,c
  3682   001ABE  581F               	subwfb	(___fldiv@rem+1)^0,w,c
  3683   001AC0  5018               	movf	(___fldiv@a+2)^0,w,c
  3684   001AC2  5820               	subwfb	(___fldiv@rem+2)^0,w,c
  3685   001AC4  5019               	movf	(___fldiv@a+3)^0,w,c
  3686   001AC6  5821               	subwfb	(___fldiv@rem+3)^0,w,c
  3687   001AC8  A0D8               	btfss	status,0,c
  3688   001ACA  EF69  F00D         	goto	u7701
  3689   001ACE  EF6B  F00D         	goto	u7700
  3690   001AD2                     u7701:
  3691   001AD2  EF74  F00D         	goto	l7687
  3692   001AD6                     u7700:
  3693   001AD6  8C28               	bsf	(___fldiv@grs+3)^0,6,c
  3694   001AD8  5016               	movf	___fldiv@a^0,w,c
  3695   001ADA  5E1E               	subwf	___fldiv@rem^0,f,c
  3696   001ADC  5017               	movf	(___fldiv@a+1)^0,w,c
  3697   001ADE  5A1F               	subwfb	(___fldiv@rem+1)^0,f,c
  3698   001AE0  5018               	movf	(___fldiv@a+2)^0,w,c
  3699   001AE2  5A20               	subwfb	(___fldiv@rem+2)^0,f,c
  3700   001AE4  5019               	movf	(___fldiv@a+3)^0,w,c
  3701   001AE6  5A21               	subwfb	(___fldiv@rem+3)^0,f,c
  3702   001AE8                     l7687:
  3703   001AE8  2A2A               	incf	___fldiv@aexp^0,f,c
  3704   001AEA                     l1907:
  3705   001AEA  0E19               	movlw	25
  3706   001AEC  642A               	cpfsgt	___fldiv@aexp^0,c
  3707   001AEE  EF7B  F00D         	goto	u7711
  3708   001AF2  EF7D  F00D         	goto	u7710
  3709   001AF6                     u7711:
  3710   001AF6  EF3D  F00D         	goto	l7673
  3711   001AFA                     u7710:
  3712   001AFA  501E               	movf	___fldiv@rem^0,w,c
  3713   001AFC  101F               	iorwf	(___fldiv@rem+1)^0,w,c
  3714   001AFE  1020               	iorwf	(___fldiv@rem+2)^0,w,c
  3715   001B00  1021               	iorwf	(___fldiv@rem+3)^0,w,c
  3716   001B02  B4D8               	btfsc	status,2,c
  3717   001B04  EF86  F00D         	goto	u7721
  3718   001B08  EF88  F00D         	goto	u7720
  3719   001B0C                     u7721:
  3720   001B0C  EFA0  F00D         	goto	l7699
  3721   001B10                     u7720:
  3722   001B10  8025               	bsf	___fldiv@grs^0,0,c
  3723   001B12  EFA0  F00D         	goto	l7699
  3724   001B16                     l7693:
  3725   001B16  90D8               	bcf	status,0,c
  3726   001B18  3612               	rlcf	___fldiv@b^0,f,c
  3727   001B1A  3613               	rlcf	(___fldiv@b+1)^0,f,c
  3728   001B1C  3614               	rlcf	(___fldiv@b+2)^0,f,c
  3729   001B1E  3615               	rlcf	(___fldiv@b+3)^0,f,c
  3730   001B20  AE28               	btfss	(___fldiv@grs+3)^0,7,c
  3731   001B22  EF95  F00D         	goto	u7731
  3732   001B26  EF97  F00D         	goto	u7730
  3733   001B2A                     u7731:
  3734   001B2A  EF98  F00D         	goto	l1916
  3735   001B2E                     u7730:
  3736   001B2E  8012               	bsf	___fldiv@b^0,0,c
  3737   001B30                     l1916:
  3738   001B30  90D8               	bcf	status,0,c
  3739   001B32  3625               	rlcf	___fldiv@grs^0,f,c
  3740   001B34  3626               	rlcf	(___fldiv@grs+1)^0,f,c
  3741   001B36  3627               	rlcf	(___fldiv@grs+2)^0,f,c
  3742   001B38  3628               	rlcf	(___fldiv@grs+3)^0,f,c
  3743   001B3A  0623               	decf	___fldiv@new_exp^0,f,c
  3744   001B3C  A0D8               	btfss	status,0,c
  3745   001B3E  0624               	decf	(___fldiv@new_exp+1)^0,f,c
  3746   001B40                     l7699:
  3747   001B40  AE14               	btfss	(___fldiv@b+2)^0,7,c
  3748   001B42  EFA5  F00D         	goto	u7741
  3749   001B46  EFA7  F00D         	goto	u7740
  3750   001B4A                     u7741:
  3751   001B4A  EF8B  F00D         	goto	l7693
  3752   001B4E                     u7740:
  3753   001B4E  0E00               	movlw	0
  3754   001B50  6E2A               	movwf	___fldiv@aexp^0,c
  3755   001B52  AE28               	btfss	(___fldiv@grs+3)^0,7,c
  3756   001B54  EFAE  F00D         	goto	u7751
  3757   001B58  EFB0  F00D         	goto	u7750
  3758   001B5C                     u7751:
  3759   001B5C  EFD4  F00D         	goto	l1918
  3760   001B60                     u7750:
  3761   001B60  0EFF               	movlw	255
  3762   001B62  1425               	andwf	___fldiv@grs^0,w,c
  3763   001B64  6E1A               	movwf	??___fldiv^0,c
  3764   001B66  0EFF               	movlw	255
  3765   001B68  1426               	andwf	(___fldiv@grs+1)^0,w,c
  3766   001B6A  6E1B               	movwf	(??___fldiv+1)^0,c
  3767   001B6C  0EFF               	movlw	255
  3768   001B6E  1427               	andwf	(___fldiv@grs+2)^0,w,c
  3769   001B70  6E1C               	movwf	(??___fldiv+2)^0,c
  3770   001B72  0E7F               	movlw	127
  3771   001B74  1428               	andwf	(___fldiv@grs+3)^0,w,c
  3772   001B76  6E1D               	movwf	(??___fldiv+3)^0,c
  3773   001B78  501A               	movf	??___fldiv^0,w,c
  3774   001B7A  101B               	iorwf	(??___fldiv+1)^0,w,c
  3775   001B7C  101C               	iorwf	(??___fldiv+2)^0,w,c
  3776   001B7E  101D               	iorwf	(??___fldiv+3)^0,w,c
  3777   001B80  B4D8               	btfsc	status,2,c
  3778   001B82  EFC5  F00D         	goto	u7761
  3779   001B86  EFC7  F00D         	goto	u7760
  3780   001B8A                     u7761:
  3781   001B8A  EFCB  F00D         	goto	l1919
  3782   001B8E                     u7760:
  3783   001B8E                     l7707:
  3784   001B8E  0E01               	movlw	1
  3785   001B90  6E2A               	movwf	___fldiv@aexp^0,c
  3786   001B92  EFD4  F00D         	goto	l1918
  3787   001B96                     l1919:
  3788   001B96  A012               	btfss	___fldiv@b^0,0,c
  3789   001B98  EFD0  F00D         	goto	u7771
  3790   001B9C  EFD2  F00D         	goto	u7770
  3791   001BA0                     u7771:
  3792   001BA0  EFD4  F00D         	goto	l1918
  3793   001BA4                     u7770:
  3794   001BA4  EFC7  F00D         	goto	l7707
  3795   001BA8                     l1918:
  3796   001BA8  502A               	movf	___fldiv@aexp^0,w,c
  3797   001BAA  B4D8               	btfsc	status,2,c
  3798   001BAC  EFDA  F00D         	goto	u7781
  3799   001BB0  EFDC  F00D         	goto	u7780
  3800   001BB4                     u7781:
  3801   001BB4  EF00  F00E         	goto	l7719
  3802   001BB8                     u7780:
  3803   001BB8  0E01               	movlw	1
  3804   001BBA  2612               	addwf	___fldiv@b^0,f,c
  3805   001BBC  0E00               	movlw	0
  3806   001BBE  2213               	addwfc	(___fldiv@b+1)^0,f,c
  3807   001BC0  2214               	addwfc	(___fldiv@b+2)^0,f,c
  3808   001BC2  2215               	addwfc	(___fldiv@b+3)^0,f,c
  3809   001BC4  A015               	btfss	(___fldiv@b+3)^0,0,c
  3810   001BC6  EFE7  F00D         	goto	u7791
  3811   001BCA  EFE9  F00D         	goto	u7790
  3812   001BCE                     u7791:
  3813   001BCE  EF00  F00E         	goto	l7719
  3814   001BD2                     u7790:
  3815   001BD2  C012  F01A         	movff	___fldiv@b,??___fldiv
  3816   001BD6  C013  F01B         	movff	___fldiv@b+1,??___fldiv+1
  3817   001BDA  C014  F01C         	movff	___fldiv@b+2,??___fldiv+2
  3818   001BDE  C015  F01D         	movff	___fldiv@b+3,??___fldiv+3
  3819   001BE2  341D               	rlcf	(??___fldiv+3)^0,w,c
  3820   001BE4  321D               	rrcf	(??___fldiv+3)^0,f,c
  3821   001BE6  321C               	rrcf	(??___fldiv+2)^0,f,c
  3822   001BE8  321B               	rrcf	(??___fldiv+1)^0,f,c
  3823   001BEA  321A               	rrcf	??___fldiv^0,f,c
  3824   001BEC  C01A  F012         	movff	??___fldiv,___fldiv@b
  3825   001BF0  C01B  F013         	movff	??___fldiv+1,___fldiv@b+1
  3826   001BF4  C01C  F014         	movff	??___fldiv+2,___fldiv@b+2
  3827   001BF8  C01D  F015         	movff	??___fldiv+3,___fldiv@b+3
  3828   001BFC  4A23               	infsnz	___fldiv@new_exp^0,f,c
  3829   001BFE  2A24               	incf	(___fldiv@new_exp+1)^0,f,c
  3830   001C00                     l7719:
  3831   001C00  BE24               	btfsc	(___fldiv@new_exp+1)^0,7,c
  3832   001C02  EF0B  F00E         	goto	u7801
  3833   001C06  5024               	movf	(___fldiv@new_exp+1)^0,w,c
  3834   001C08  E108               	bnz	u7800
  3835   001C0A  2823               	incf	___fldiv@new_exp^0,w,c
  3836   001C0C  A0D8               	btfss	status,0,c
  3837   001C0E  EF0B  F00E         	goto	u7801
  3838   001C12  EF0D  F00E         	goto	u7800
  3839   001C16                     u7801:
  3840   001C16  EF18  F00E         	goto	l7723
  3841   001C1A                     u7800:
  3842   001C1A  0E00               	movlw	0
  3843   001C1C  6E24               	movwf	(___fldiv@new_exp+1)^0,c
  3844   001C1E  6823               	setf	___fldiv@new_exp^0,c
  3845   001C20  0E00               	movlw	0
  3846   001C22  6E12               	movwf	___fldiv@b^0,c
  3847   001C24  0E00               	movlw	0
  3848   001C26  6E13               	movwf	(___fldiv@b+1)^0,c
  3849   001C28  0E00               	movlw	0
  3850   001C2A  6E14               	movwf	(___fldiv@b+2)^0,c
  3851   001C2C  0E00               	movlw	0
  3852   001C2E  6E15               	movwf	(___fldiv@b+3)^0,c
  3853   001C30                     l7723:
  3854   001C30  BE24               	btfsc	(___fldiv@new_exp+1)^0,7,c
  3855   001C32  EF25  F00E         	goto	u7810
  3856   001C36  5024               	movf	(___fldiv@new_exp+1)^0,w,c
  3857   001C38  E106               	bnz	u7811
  3858   001C3A  0423               	decf	___fldiv@new_exp^0,w,c
  3859   001C3C  B0D8               	btfsc	status,0,c
  3860   001C3E  EF23  F00E         	goto	u7811
  3861   001C42  EF25  F00E         	goto	u7810
  3862   001C46                     u7811:
  3863   001C46  EF33  F00E         	goto	l7727
  3864   001C4A                     u7810:
  3865   001C4A  0E00               	movlw	0
  3866   001C4C  6E24               	movwf	(___fldiv@new_exp+1)^0,c
  3867   001C4E  0E00               	movlw	0
  3868   001C50  6E23               	movwf	___fldiv@new_exp^0,c
  3869   001C52  0E00               	movlw	0
  3870   001C54  6E12               	movwf	___fldiv@b^0,c
  3871   001C56  0E00               	movlw	0
  3872   001C58  6E13               	movwf	(___fldiv@b+1)^0,c
  3873   001C5A  0E00               	movlw	0
  3874   001C5C  6E14               	movwf	(___fldiv@b+2)^0,c
  3875   001C5E  0E00               	movlw	0
  3876   001C60  6E15               	movwf	(___fldiv@b+3)^0,c
  3877   001C62  0E00               	movlw	0
  3878   001C64  6E22               	movwf	___fldiv@sign^0,c
  3879   001C66                     l7727:
  3880   001C66  C023  F029         	movff	___fldiv@new_exp,___fldiv@bexp
  3881   001C6A  A029               	btfss	___fldiv@bexp^0,0,c
  3882   001C6C  EF3A  F00E         	goto	u7821
  3883   001C70  EF3C  F00E         	goto	u7820
  3884   001C74                     u7821:
  3885   001C74  EF3F  F00E         	goto	l7733
  3886   001C78                     u7820:
  3887   001C78  8E14               	bsf	(___fldiv@b+2)^0,7,c
  3888   001C7A  EF40  F00E         	goto	l7735
  3889   001C7E                     l7733:
  3890   001C7E  9E14               	bcf	(___fldiv@b+2)^0,7,c
  3891   001C80                     l7735:
  3892   001C80  90D8               	bcf	status,0,c
  3893   001C82  3029               	rrcf	___fldiv@bexp^0,w,c
  3894   001C84  6E15               	movwf	(___fldiv@b+3)^0,c
  3895   001C86  EFF6  F00C         	goto	l7649
  3896   001C8A                     l1905:
  3897   001C8A  0012               	return		;funcret
  3898   001C8C                     __end_of___fldiv:
  3899                           	callstack 0
  3900                           
  3901 ;; *************** function ___fladd *****************
  3902 ;; Defined at:
  3903 ;;		line 10 in file "D:\Embeded-Compiler\pic\sources\c99\common\sprcadd.c"
  3904 ;; Parameters:    Size  Location     Type
  3905 ;;  b               4   67[COMRAM] unsigned char 
  3906 ;;  a               4   71[COMRAM] unsigned char 
  3907 ;; Auto vars:     Size  Location     Type
  3908 ;;  grs             1   82[COMRAM] unsigned char 
  3909 ;;  bexp            1   81[COMRAM] unsigned char 
  3910 ;;  aexp            1   80[COMRAM] unsigned char 
  3911 ;;  signs           1   79[COMRAM] unsigned char 
  3912 ;; Return value:  Size  Location     Type
  3913 ;;                  4   67[COMRAM] unsigned char 
  3914 ;; Registers used:
  3915 ;;		wreg, status,2, status,0
  3916 ;; Tracked objects:
  3917 ;;		On entry : 0/0
  3918 ;;		On exit  : 0/0
  3919 ;;		Unchanged: 0/0
  3920 ;; Data sizes:     COMRAM   BANK0   BANK1   BANK2   BANK3   BANK4   BANK5   BANK6   BANK7   BANK8   BANK9  BANK10  BANK1
      +1  BANK12  BANK13  BANK14  BANK15
  3921 ;;      Params:         8       0       0       0       0       0       0       0       0       0       0       0       
      +0       0       0       0       0
  3922 ;;      Locals:         4       0       0       0       0       0       0       0       0       0       0       0       
      +0       0       0       0       0
  3923 ;;      Temps:          4       0       0       0       0       0       0       0       0       0       0       0       
      +0       0       0       0       0
  3924 ;;      Totals:        16       0       0       0       0       0       0       0       0       0       0       0       
      +0       0       0       0       0
  3925 ;;Total ram usage:       16 bytes
  3926 ;; Hardware stack levels used: 1
  3927 ;; Hardware stack levels required when called: 3
  3928 ;; This function calls:
  3929 ;;		Nothing
  3930 ;; This function is called by:
  3931 ;;		_CCP_PWM_Init
  3932 ;; This function uses a non-reentrant model
  3933 ;;
  3934                           
  3935                           	psect	text12
  3936   001008                     __ptext12:
  3937                           	callstack 0
  3938   001008                     ___fladd:
  3939                           	callstack 26
  3940   001008  5047               	movf	(___fladd@b+3)^0,w,c
  3941   00100A  0B80               	andlw	128
  3942   00100C  6E50               	movwf	___fladd@signs^0,c
  3943   00100E  5047               	movf	(___fladd@b+3)^0,w,c
  3944   001010  2447               	addwf	(___fladd@b+3)^0,w,c
  3945   001012  6E52               	movwf	___fladd@bexp^0,c
  3946   001014  AE46               	btfss	(___fladd@b+2)^0,7,c
  3947   001016  EF0F  F008         	goto	u7211
  3948   00101A  EF11  F008         	goto	u7210
  3949   00101E                     u7211:
  3950   00101E  EF12  F008         	goto	l7409
  3951   001022                     u7210:
  3952   001022  8052               	bsf	___fladd@bexp^0,0,c
  3953   001024                     l7409:
  3954   001024  5052               	movf	___fladd@bexp^0,w,c
  3955   001026  B4D8               	btfsc	status,2,c
  3956   001028  EF18  F008         	goto	u7221
  3957   00102C  EF1A  F008         	goto	u7220
  3958   001030                     u7221:
  3959   001030  EF2F  F008         	goto	l7419
  3960   001034                     u7220:
  3961   001034  2852               	incf	___fladd@bexp^0,w,c
  3962   001036  A4D8               	btfss	status,2,c
  3963   001038  EF20  F008         	goto	u7231
  3964   00103C  EF22  F008         	goto	u7230
  3965   001040                     u7231:
  3966   001040  EF2A  F008         	goto	l7415
  3967   001044                     u7230:
  3968   001044  0E00               	movlw	0
  3969   001046  6E44               	movwf	___fladd@b^0,c
  3970   001048  0E00               	movlw	0
  3971   00104A  6E45               	movwf	(___fladd@b+1)^0,c
  3972   00104C  0E00               	movlw	0
  3973   00104E  6E46               	movwf	(___fladd@b+2)^0,c
  3974   001050  0E00               	movlw	0
  3975   001052  6E47               	movwf	(___fladd@b+3)^0,c
  3976   001054                     l7415:
  3977   001054  8E46               	bsf	(___fladd@b+2)^0,7,c
  3978   001056  0E00               	movlw	0
  3979   001058  6E47               	movwf	(___fladd@b+3)^0,c
  3980   00105A  EF37  F008         	goto	l7421
  3981   00105E                     l7419:
  3982   00105E  0E00               	movlw	0
  3983   001060  6E44               	movwf	___fladd@b^0,c
  3984   001062  0E00               	movlw	0
  3985   001064  6E45               	movwf	(___fladd@b+1)^0,c
  3986   001066  0E00               	movlw	0
  3987   001068  6E46               	movwf	(___fladd@b+2)^0,c
  3988   00106A  0E00               	movlw	0
  3989   00106C  6E47               	movwf	(___fladd@b+3)^0,c
  3990   00106E                     l7421:
  3991   00106E  504B               	movf	(___fladd@a+3)^0,w,c
  3992   001070  0B80               	andlw	128
  3993   001072  6E51               	movwf	___fladd@aexp^0,c
  3994   001074  5050               	movf	___fladd@signs^0,w,c
  3995   001076  1851               	xorwf	___fladd@aexp^0,w,c
  3996   001078  B4D8               	btfsc	status,2,c
  3997   00107A  EF41  F008         	goto	u7241
  3998   00107E  EF43  F008         	goto	u7240
  3999   001082                     u7241:
  4000   001082  EF44  F008         	goto	l7427
  4001   001086                     u7240:
  4002   001086  8C50               	bsf	___fladd@signs^0,6,c
  4003   001088                     l7427:
  4004   001088  504B               	movf	(___fladd@a+3)^0,w,c
  4005   00108A  244B               	addwf	(___fladd@a+3)^0,w,c
  4006   00108C  6E51               	movwf	___fladd@aexp^0,c
  4007   00108E  AE4A               	btfss	(___fladd@a+2)^0,7,c
  4008   001090  EF4C  F008         	goto	u7251
  4009   001094  EF4E  F008         	goto	u7250
  4010   001098                     u7251:
  4011   001098  EF4F  F008         	goto	l7433
  4012   00109C                     u7250:
  4013   00109C  8051               	bsf	___fladd@aexp^0,0,c
  4014   00109E                     l7433:
  4015   00109E  5051               	movf	___fladd@aexp^0,w,c
  4016   0010A0  B4D8               	btfsc	status,2,c
  4017   0010A2  EF55  F008         	goto	u7261
  4018   0010A6  EF57  F008         	goto	u7260
  4019   0010AA                     u7261:
  4020   0010AA  EF6C  F008         	goto	l7443
  4021   0010AE                     u7260:
  4022   0010AE  2851               	incf	___fladd@aexp^0,w,c
  4023   0010B0  A4D8               	btfss	status,2,c
  4024   0010B2  EF5D  F008         	goto	u7271
  4025   0010B6  EF5F  F008         	goto	u7270
  4026   0010BA                     u7271:
  4027   0010BA  EF67  F008         	goto	l7439
  4028   0010BE                     u7270:
  4029   0010BE  0E00               	movlw	0
  4030   0010C0  6E48               	movwf	___fladd@a^0,c
  4031   0010C2  0E00               	movlw	0
  4032   0010C4  6E49               	movwf	(___fladd@a+1)^0,c
  4033   0010C6  0E00               	movlw	0
  4034   0010C8  6E4A               	movwf	(___fladd@a+2)^0,c
  4035   0010CA  0E00               	movlw	0
  4036   0010CC  6E4B               	movwf	(___fladd@a+3)^0,c
  4037   0010CE                     l7439:
  4038   0010CE  8E4A               	bsf	(___fladd@a+2)^0,7,c
  4039   0010D0  0E00               	movlw	0
  4040   0010D2  6E4B               	movwf	(___fladd@a+3)^0,c
  4041   0010D4  EF74  F008         	goto	l7445
  4042   0010D8                     l7443:
  4043   0010D8  0E00               	movlw	0
  4044   0010DA  6E48               	movwf	___fladd@a^0,c
  4045   0010DC  0E00               	movlw	0
  4046   0010DE  6E49               	movwf	(___fladd@a+1)^0,c
  4047   0010E0  0E00               	movlw	0
  4048   0010E2  6E4A               	movwf	(___fladd@a+2)^0,c
  4049   0010E4  0E00               	movlw	0
  4050   0010E6  6E4B               	movwf	(___fladd@a+3)^0,c
  4051   0010E8                     l7445:
  4052   0010E8  5052               	movf	___fladd@bexp^0,w,c
  4053   0010EA  5C51               	subwf	___fladd@aexp^0,w,c
  4054   0010EC  B0D8               	btfsc	status,0,c
  4055   0010EE  EF7B  F008         	goto	u7281
  4056   0010F2  EF7D  F008         	goto	u7280
  4057   0010F6                     u7281:
  4058   0010F6  EFA4  F008         	goto	l7481
  4059   0010FA                     u7280:
  4060   0010FA  AC50               	btfss	___fladd@signs^0,6,c
  4061   0010FC  EF82  F008         	goto	u7291
  4062   001100  EF84  F008         	goto	u7290
  4063   001104                     u7291:
  4064   001104  EF86  F008         	goto	l7451
  4065   001108                     u7290:
  4066   001108  0E80               	movlw	128
  4067   00110A  1A50               	xorwf	___fladd@signs^0,f,c
  4068   00110C                     l7451:
  4069   00110C  C052  F053         	movff	___fladd@bexp,___fladd@grs
  4070   001110  C051  F052         	movff	___fladd@aexp,___fladd@bexp
  4071   001114  C053  F051         	movff	___fladd@grs,___fladd@aexp
  4072   001118  C044  F053         	movff	___fladd@b,___fladd@grs
  4073   00111C  C048  F044         	movff	___fladd@a,___fladd@b
  4074   001120  C053  F048         	movff	___fladd@grs,___fladd@a
  4075   001124  C045  F053         	movff	___fladd@b+1,___fladd@grs
  4076   001128  C049  F045         	movff	___fladd@a+1,___fladd@b+1
  4077   00112C  C053  F049         	movff	___fladd@grs,___fladd@a+1
  4078   001130  C046  F053         	movff	___fladd@b+2,___fladd@grs
  4079   001134  C04A  F046         	movff	___fladd@a+2,___fladd@b+2
  4080   001138  C053  F04A         	movff	___fladd@grs,___fladd@a+2
  4081   00113C  C047  F053         	movff	___fladd@b+3,___fladd@grs
  4082   001140  C04B  F047         	movff	___fladd@a+3,___fladd@b+3
  4083   001144  C053  F04B         	movff	___fladd@grs,___fladd@a+3
  4084   001148                     l7481:
  4085   001148  0E00               	movlw	0
  4086   00114A  6E53               	movwf	___fladd@grs^0,c
  4087   00114C  5052               	movf	___fladd@bexp^0,w,c
  4088   00114E  C051  F04C         	movff	___fladd@aexp,??___fladd
  4089   001152  6A4D               	clrf	(??___fladd+1)^0,c
  4090   001154  5E4C               	subwf	??___fladd^0,f,c
  4091   001156  0E00               	movlw	0
  4092   001158  5A4D               	subwfb	(??___fladd+1)^0,f,c
  4093   00115A  BE4D               	btfsc	(??___fladd+1)^0,7,c
  4094   00115C  EFB9  F008         	goto	u7301
  4095   001160  504D               	movf	(??___fladd+1)^0,w,c
  4096   001162  E109               	bnz	u7300
  4097   001164  0E1A               	movlw	26
  4098   001166  5C4C               	subwf	??___fladd^0,w,c
  4099   001168  A0D8               	btfss	status,0,c
  4100   00116A  EFB9  F008         	goto	u7301
  4101   00116E  EFBB  F008         	goto	u7300
  4102   001172                     u7301:
  4103   001172  EFF2  F008         	goto	l1852
  4104   001176                     u7300:
  4105   001176  5044               	movf	___fladd@b^0,w,c
  4106   001178  1045               	iorwf	(___fladd@b+1)^0,w,c
  4107   00117A  1046               	iorwf	(___fladd@b+2)^0,w,c
  4108   00117C  1047               	iorwf	(___fladd@b+3)^0,w,c
  4109   00117E  A4D8               	btfss	status,2,c
  4110   001180  EFC4  F008         	goto	u7311
  4111   001184  EFC7  F008         	goto	u7310
  4112   001188                     u7311:
  4113   001188  0E01               	movlw	1
  4114   00118A  EFC8  F008         	goto	u7320
  4115   00118E                     u7310:
  4116   00118E  0E00               	movlw	0
  4117   001190                     u7320:
  4118   001190  6E53               	movwf	___fladd@grs^0,c
  4119   001192  0E00               	movlw	0
  4120   001194  6E44               	movwf	___fladd@b^0,c
  4121   001196  0E00               	movlw	0
  4122   001198  6E45               	movwf	(___fladd@b+1)^0,c
  4123   00119A  0E00               	movlw	0
  4124   00119C  6E46               	movwf	(___fladd@b+2)^0,c
  4125   00119E  0E00               	movlw	0
  4126   0011A0  6E47               	movwf	(___fladd@b+3)^0,c
  4127   0011A2  C051  F052         	movff	___fladd@aexp,___fladd@bexp
  4128   0011A6  EFFB  F008         	goto	l1851
  4129   0011AA                     l1853:
  4130   0011AA  A053               	btfss	___fladd@grs^0,0,c
  4131   0011AC  EFDA  F008         	goto	u7331
  4132   0011B0  EFDC  F008         	goto	u7330
  4133   0011B4                     u7331:
  4134   0011B4  EFE2  F008         	goto	l7493
  4135   0011B8                     u7330:
  4136   0011B8  90D8               	bcf	status,0,c
  4137   0011BA  3053               	rrcf	___fladd@grs^0,w,c
  4138   0011BC  0901               	iorlw	1
  4139   0011BE  6E53               	movwf	___fladd@grs^0,c
  4140   0011C0  EFE4  F008         	goto	l7495
  4141   0011C4                     l7493:
  4142   0011C4  90D8               	bcf	status,0,c
  4143   0011C6  3253               	rrcf	___fladd@grs^0,f,c
  4144   0011C8                     l7495:
  4145   0011C8  A044               	btfss	___fladd@b^0,0,c
  4146   0011CA  EFE9  F008         	goto	u7341
  4147   0011CE  EFEB  F008         	goto	u7340
  4148   0011D2                     u7341:
  4149   0011D2  EFEC  F008         	goto	l7499
  4150   0011D6                     u7340:
  4151   0011D6  8E53               	bsf	___fladd@grs^0,7,c
  4152   0011D8                     l7499:
  4153   0011D8  3447               	rlcf	(___fladd@b+3)^0,w,c
  4154   0011DA  3247               	rrcf	(___fladd@b+3)^0,f,c
  4155   0011DC  3246               	rrcf	(___fladd@b+2)^0,f,c
  4156   0011DE  3245               	rrcf	(___fladd@b+1)^0,f,c
  4157   0011E0  3244               	rrcf	___fladd@b^0,f,c
  4158   0011E2  2A52               	incf	___fladd@bexp^0,f,c
  4159   0011E4                     l1852:
  4160   0011E4  5051               	movf	___fladd@aexp^0,w,c
  4161   0011E6  5C52               	subwf	___fladd@bexp^0,w,c
  4162   0011E8  A0D8               	btfss	status,0,c
  4163   0011EA  EFF9  F008         	goto	u7351
  4164   0011EE  EFFB  F008         	goto	u7350
  4165   0011F2                     u7351:
  4166   0011F2  EFD5  F008         	goto	l1853
  4167   0011F6                     u7350:
  4168   0011F6                     l1851:
  4169   0011F6  BC50               	btfsc	___fladd@signs^0,6,c
  4170   0011F8  EF00  F009         	goto	u7361
  4171   0011FC  EF02  F009         	goto	u7360
  4172   001200                     u7361:
  4173   001200  EF42  F009         	goto	l7527
  4174   001204                     u7360:
  4175   001204  5052               	movf	___fladd@bexp^0,w,c
  4176   001206  A4D8               	btfss	status,2,c
  4177   001208  EF08  F009         	goto	u7371
  4178   00120C  EF0A  F009         	goto	u7370
  4179   001210                     u7371:
  4180   001210  EF14  F009         	goto	l7509
  4181   001214                     u7370:
  4182   001214  0E00               	movlw	0
  4183   001216  6E44               	movwf	?___fladd^0,c
  4184   001218  0E00               	movlw	0
  4185   00121A  6E45               	movwf	(?___fladd+1)^0,c
  4186   00121C  0E00               	movlw	0
  4187   00121E  6E46               	movwf	(?___fladd+2)^0,c
  4188   001220  0E00               	movlw	0
  4189   001222  6E47               	movwf	(?___fladd+3)^0,c
  4190   001224  EF63  F00A         	goto	l1860
  4191   001228                     l7509:
  4192   001228  5048               	movf	___fladd@a^0,w,c
  4193   00122A  2644               	addwf	___fladd@b^0,f,c
  4194   00122C  5049               	movf	(___fladd@a+1)^0,w,c
  4195   00122E  2245               	addwfc	(___fladd@b+1)^0,f,c
  4196   001230  504A               	movf	(___fladd@a+2)^0,w,c
  4197   001232  2246               	addwfc	(___fladd@b+2)^0,f,c
  4198   001234  504B               	movf	(___fladd@a+3)^0,w,c
  4199   001236  2247               	addwfc	(___fladd@b+3)^0,f,c
  4200   001238  A047               	btfss	(___fladd@b+3)^0,0,c
  4201   00123A  EF21  F009         	goto	u7381
  4202   00123E  EF23  F009         	goto	u7380
  4203   001242                     u7381:
  4204   001242  EFCF  F009         	goto	l7563
  4205   001246                     u7380:
  4206   001246  A053               	btfss	___fladd@grs^0,0,c
  4207   001248  EF28  F009         	goto	u7391
  4208   00124C  EF2A  F009         	goto	u7390
  4209   001250                     u7391:
  4210   001250  EF30  F009         	goto	l7517
  4211   001254                     u7390:
  4212   001254  90D8               	bcf	status,0,c
  4213   001256  3053               	rrcf	___fladd@grs^0,w,c
  4214   001258  0901               	iorlw	1
  4215   00125A  6E53               	movwf	___fladd@grs^0,c
  4216   00125C  EF32  F009         	goto	l7519
  4217   001260                     l7517:
  4218   001260  90D8               	bcf	status,0,c
  4219   001262  3253               	rrcf	___fladd@grs^0,f,c
  4220   001264                     l7519:
  4221   001264  A044               	btfss	___fladd@b^0,0,c
  4222   001266  EF37  F009         	goto	u7401
  4223   00126A  EF39  F009         	goto	u7400
  4224   00126E                     u7401:
  4225   00126E  EF3A  F009         	goto	l7523
  4226   001272                     u7400:
  4227   001272  8E53               	bsf	___fladd@grs^0,7,c
  4228   001274                     l7523:
  4229   001274  3447               	rlcf	(___fladd@b+3)^0,w,c
  4230   001276  3247               	rrcf	(___fladd@b+3)^0,f,c
  4231   001278  3246               	rrcf	(___fladd@b+2)^0,f,c
  4232   00127A  3245               	rrcf	(___fladd@b+1)^0,f,c
  4233   00127C  3244               	rrcf	___fladd@b^0,f,c
  4234   00127E  2A52               	incf	___fladd@bexp^0,f,c
  4235   001280  EFCF  F009         	goto	l7563
  4236   001284                     l7527:
  4237   001284  5048               	movf	___fladd@a^0,w,c
  4238   001286  5C44               	subwf	___fladd@b^0,w,c
  4239   001288  5049               	movf	(___fladd@a+1)^0,w,c
  4240   00128A  5845               	subwfb	(___fladd@b+1)^0,w,c
  4241   00128C  504A               	movf	(___fladd@a+2)^0,w,c
  4242   00128E  5846               	subwfb	(___fladd@b+2)^0,w,c
  4243   001290  5047               	movf	(___fladd@b+3)^0,w,c
  4244   001292  0A80               	xorlw	128
  4245   001294  6E4C               	movwf	??___fladd^0,c
  4246   001296  504B               	movf	(___fladd@a+3)^0,w,c
  4247   001298  0A80               	xorlw	128
  4248   00129A  584C               	subwfb	??___fladd^0,w,c
  4249   00129C  B0D8               	btfsc	status,0,c
  4250   00129E  EF53  F009         	goto	u7411
  4251   0012A2  EF55  F009         	goto	u7410
  4252   0012A6                     u7411:
  4253   0012A6  EF80  F009         	goto	l7537
  4254   0012AA                     u7410:
  4255   0012AA  5044               	movf	___fladd@b^0,w,c
  4256   0012AC  5C48               	subwf	___fladd@a^0,w,c
  4257   0012AE  6E4C               	movwf	??___fladd^0,c
  4258   0012B0  5045               	movf	(___fladd@b+1)^0,w,c
  4259   0012B2  5849               	subwfb	(___fladd@a+1)^0,w,c
  4260   0012B4  6E4D               	movwf	(??___fladd+1)^0,c
  4261   0012B6  5046               	movf	(___fladd@b+2)^0,w,c
  4262   0012B8  584A               	subwfb	(___fladd@a+2)^0,w,c
  4263   0012BA  6E4E               	movwf	(??___fladd+2)^0,c
  4264   0012BC  5047               	movf	(___fladd@b+3)^0,w,c
  4265   0012BE  584B               	subwfb	(___fladd@a+3)^0,w,c
  4266   0012C0  6E4F               	movwf	(??___fladd+3)^0,c
  4267   0012C2  0EFF               	movlw	255
  4268   0012C4  244C               	addwf	??___fladd^0,w,c
  4269   0012C6  6E44               	movwf	___fladd@b^0,c
  4270   0012C8  0EFF               	movlw	255
  4271   0012CA  204D               	addwfc	(??___fladd+1)^0,w,c
  4272   0012CC  6E45               	movwf	(___fladd@b+1)^0,c
  4273   0012CE  0EFF               	movlw	255
  4274   0012D0  204E               	addwfc	(??___fladd+2)^0,w,c
  4275   0012D2  6E46               	movwf	(___fladd@b+2)^0,c
  4276   0012D4  0EFF               	movlw	255
  4277   0012D6  204F               	addwfc	(??___fladd+3)^0,w,c
  4278   0012D8  6E47               	movwf	(___fladd@b+3)^0,c
  4279   0012DA  0E80               	movlw	128
  4280   0012DC  1A50               	xorwf	___fladd@signs^0,f,c
  4281   0012DE  6C53               	negf	___fladd@grs^0,c
  4282   0012E0  5053               	movf	___fladd@grs^0,w,c
  4283   0012E2  A4D8               	btfss	status,2,c
  4284   0012E4  EF76  F009         	goto	u7421
  4285   0012E8  EF78  F009         	goto	u7420
  4286   0012EC                     u7421:
  4287   0012EC  EF88  F009         	goto	l1868
  4288   0012F0                     u7420:
  4289   0012F0  0E01               	movlw	1
  4290   0012F2  2644               	addwf	___fladd@b^0,f,c
  4291   0012F4  0E00               	movlw	0
  4292   0012F6  2245               	addwfc	(___fladd@b+1)^0,f,c
  4293   0012F8  2246               	addwfc	(___fladd@b+2)^0,f,c
  4294   0012FA  2247               	addwfc	(___fladd@b+3)^0,f,c
  4295   0012FC  EF88  F009         	goto	l1868
  4296   001300                     l7537:
  4297   001300  5048               	movf	___fladd@a^0,w,c
  4298   001302  5E44               	subwf	___fladd@b^0,f,c
  4299   001304  5049               	movf	(___fladd@a+1)^0,w,c
  4300   001306  5A45               	subwfb	(___fladd@b+1)^0,f,c
  4301   001308  504A               	movf	(___fladd@a+2)^0,w,c
  4302   00130A  5A46               	subwfb	(___fladd@b+2)^0,f,c
  4303   00130C  504B               	movf	(___fladd@a+3)^0,w,c
  4304   00130E  5A47               	subwfb	(___fladd@b+3)^0,f,c
  4305   001310                     l1868:
  4306   001310  5044               	movf	___fladd@b^0,w,c
  4307   001312  1045               	iorwf	(___fladd@b+1)^0,w,c
  4308   001314  1046               	iorwf	(___fladd@b+2)^0,w,c
  4309   001316  1047               	iorwf	(___fladd@b+3)^0,w,c
  4310   001318  A4D8               	btfss	status,2,c
  4311   00131A  EF91  F009         	goto	u7431
  4312   00131E  EF93  F009         	goto	u7430
  4313   001322                     u7431:
  4314   001322  EFC8  F009         	goto	l7561
  4315   001326                     u7430:
  4316   001326  5053               	movf	___fladd@grs^0,w,c
  4317   001328  A4D8               	btfss	status,2,c
  4318   00132A  EF99  F009         	goto	u7441
  4319   00132E  EF9B  F009         	goto	u7440
  4320   001332                     u7441:
  4321   001332  EFC8  F009         	goto	l7561
  4322   001336                     u7440:
  4323   001336  0E00               	movlw	0
  4324   001338  6E44               	movwf	?___fladd^0,c
  4325   00133A  0E00               	movlw	0
  4326   00133C  6E45               	movwf	(?___fladd+1)^0,c
  4327   00133E  0E00               	movlw	0
  4328   001340  6E46               	movwf	(?___fladd+2)^0,c
  4329   001342  0E00               	movlw	0
  4330   001344  6E47               	movwf	(?___fladd+3)^0,c
  4331   001346  EF63  F00A         	goto	l1860
  4332   00134A                     l7545:
  4333   00134A  90D8               	bcf	status,0,c
  4334   00134C  3644               	rlcf	___fladd@b^0,f,c
  4335   00134E  3645               	rlcf	(___fladd@b+1)^0,f,c
  4336   001350  3646               	rlcf	(___fladd@b+2)^0,f,c
  4337   001352  3647               	rlcf	(___fladd@b+3)^0,f,c
  4338   001354  AE53               	btfss	___fladd@grs^0,7,c
  4339   001356  EFAF  F009         	goto	u7451
  4340   00135A  EFB1  F009         	goto	u7450
  4341   00135E                     u7451:
  4342   00135E  EFB2  F009         	goto	l7551
  4343   001362                     u7450:
  4344   001362  8044               	bsf	___fladd@b^0,0,c
  4345   001364                     l7551:
  4346   001364  A053               	btfss	___fladd@grs^0,0,c
  4347   001366  EFB7  F009         	goto	u7461
  4348   00136A  EFB9  F009         	goto	u7460
  4349   00136E                     u7461:
  4350   00136E  EFBD  F009         	goto	l7555
  4351   001372                     u7460:
  4352   001372  80D8               	bsf	status,0,c
  4353   001374  3653               	rlcf	___fladd@grs^0,f,c
  4354   001376  EFBF  F009         	goto	l7557
  4355   00137A                     l7555:
  4356   00137A  90D8               	bcf	status,0,c
  4357   00137C  3653               	rlcf	___fladd@grs^0,f,c
  4358   00137E                     l7557:
  4359   00137E  5052               	movf	___fladd@bexp^0,w,c
  4360   001380  B4D8               	btfsc	status,2,c
  4361   001382  EFC5  F009         	goto	u7471
  4362   001386  EFC7  F009         	goto	u7470
  4363   00138A                     u7471:
  4364   00138A  EFC8  F009         	goto	l7561
  4365   00138E                     u7470:
  4366   00138E  0652               	decf	___fladd@bexp^0,f,c
  4367   001390                     l7561:
  4368   001390  AE46               	btfss	(___fladd@b+2)^0,7,c
  4369   001392  EFCD  F009         	goto	u7481
  4370   001396  EFCF  F009         	goto	u7480
  4371   00139A                     u7481:
  4372   00139A  EFA5  F009         	goto	l7545
  4373   00139E                     u7480:
  4374   00139E                     l7563:
  4375   00139E  0E00               	movlw	0
  4376   0013A0  6E51               	movwf	___fladd@aexp^0,c
  4377   0013A2  AE53               	btfss	___fladd@grs^0,7,c
  4378   0013A4  EFD6  F009         	goto	u7491
  4379   0013A8  EFD8  F009         	goto	u7490
  4380   0013AC                     u7491:
  4381   0013AC  EFF0  F009         	goto	l1877
  4382   0013B0                     u7490:
  4383   0013B0  C053  F04C         	movff	___fladd@grs,??___fladd
  4384   0013B4  0E7F               	movlw	127
  4385   0013B6  164C               	andwf	??___fladd^0,f,c
  4386   0013B8  B4D8               	btfsc	status,2,c
  4387   0013BA  EFE1  F009         	goto	u7501
  4388   0013BE  EFE3  F009         	goto	u7500
  4389   0013C2                     u7501:
  4390   0013C2  EFE7  F009         	goto	l1878
  4391   0013C6                     u7500:
  4392   0013C6                     l7569:
  4393   0013C6  0E01               	movlw	1
  4394   0013C8  6E51               	movwf	___fladd@aexp^0,c
  4395   0013CA  EFF0  F009         	goto	l1877
  4396   0013CE                     l1878:
  4397   0013CE  A044               	btfss	___fladd@b^0,0,c
  4398   0013D0  EFEC  F009         	goto	u7511
  4399   0013D4  EFEE  F009         	goto	u7510
  4400   0013D8                     u7511:
  4401   0013D8  EFF0  F009         	goto	l1877
  4402   0013DC                     u7510:
  4403   0013DC  EFE3  F009         	goto	l7569
  4404   0013E0                     l1877:
  4405   0013E0  5051               	movf	___fladd@aexp^0,w,c
  4406   0013E2  B4D8               	btfsc	status,2,c
  4407   0013E4  EFF6  F009         	goto	u7521
  4408   0013E8  EFF8  F009         	goto	u7520
  4409   0013EC                     u7521:
  4410   0013EC  EF23  F00A         	goto	l7581
  4411   0013F0                     u7520:
  4412   0013F0  0E01               	movlw	1
  4413   0013F2  2644               	addwf	___fladd@b^0,f,c
  4414   0013F4  0E00               	movlw	0
  4415   0013F6  2245               	addwfc	(___fladd@b+1)^0,f,c
  4416   0013F8  2246               	addwfc	(___fladd@b+2)^0,f,c
  4417   0013FA  2247               	addwfc	(___fladd@b+3)^0,f,c
  4418   0013FC  A047               	btfss	(___fladd@b+3)^0,0,c
  4419   0013FE  EF03  F00A         	goto	u7531
  4420   001402  EF05  F00A         	goto	u7530
  4421   001406                     u7531:
  4422   001406  EF23  F00A         	goto	l7581
  4423   00140A                     u7530:
  4424   00140A  C044  F04C         	movff	___fladd@b,??___fladd
  4425   00140E  C045  F04D         	movff	___fladd@b+1,??___fladd+1
  4426   001412  C046  F04E         	movff	___fladd@b+2,??___fladd+2
  4427   001416  C047  F04F         	movff	___fladd@b+3,??___fladd+3
  4428   00141A  344F               	rlcf	(??___fladd+3)^0,w,c
  4429   00141C  324F               	rrcf	(??___fladd+3)^0,f,c
  4430   00141E  324E               	rrcf	(??___fladd+2)^0,f,c
  4431   001420  324D               	rrcf	(??___fladd+1)^0,f,c
  4432   001422  324C               	rrcf	??___fladd^0,f,c
  4433   001424  C04C  F044         	movff	??___fladd,___fladd@b
  4434   001428  C04D  F045         	movff	??___fladd+1,___fladd@b+1
  4435   00142C  C04E  F046         	movff	??___fladd+2,___fladd@b+2
  4436   001430  C04F  F047         	movff	??___fladd+3,___fladd@b+3
  4437   001434  2852               	incf	___fladd@bexp^0,w,c
  4438   001436  B4D8               	btfsc	status,2,c
  4439   001438  EF20  F00A         	goto	u7541
  4440   00143C  EF22  F00A         	goto	u7540
  4441   001440                     u7541:
  4442   001440  EF23  F00A         	goto	l7581
  4443   001444                     u7540:
  4444   001444  2A52               	incf	___fladd@bexp^0,f,c
  4445   001446                     l7581:
  4446   001446  2852               	incf	___fladd@bexp^0,w,c
  4447   001448  B4D8               	btfsc	status,2,c
  4448   00144A  EF29  F00A         	goto	u7551
  4449   00144E  EF2B  F00A         	goto	u7550
  4450   001452                     u7551:
  4451   001452  EF33  F00A         	goto	l7585
  4452   001456                     u7550:
  4453   001456  5052               	movf	___fladd@bexp^0,w,c
  4454   001458  A4D8               	btfss	status,2,c
  4455   00145A  EF31  F00A         	goto	u7561
  4456   00145E  EF33  F00A         	goto	u7560
  4457   001462                     u7561:
  4458   001462  EF45  F00A         	goto	l7589
  4459   001466                     u7560:
  4460   001466                     l7585:
  4461   001466  0E00               	movlw	0
  4462   001468  6E44               	movwf	___fladd@b^0,c
  4463   00146A  0E00               	movlw	0
  4464   00146C  6E45               	movwf	(___fladd@b+1)^0,c
  4465   00146E  0E00               	movlw	0
  4466   001470  6E46               	movwf	(___fladd@b+2)^0,c
  4467   001472  0E00               	movlw	0
  4468   001474  6E47               	movwf	(___fladd@b+3)^0,c
  4469   001476  5052               	movf	___fladd@bexp^0,w,c
  4470   001478  A4D8               	btfss	status,2,c
  4471   00147A  EF41  F00A         	goto	u7571
  4472   00147E  EF43  F00A         	goto	u7570
  4473   001482                     u7571:
  4474   001482  EF45  F00A         	goto	l7589
  4475   001486                     u7570:
  4476   001486  0E00               	movlw	0
  4477   001488  6E50               	movwf	___fladd@signs^0,c
  4478   00148A                     l7589:
  4479   00148A  A052               	btfss	___fladd@bexp^0,0,c
  4480   00148C  EF4A  F00A         	goto	u7581
  4481   001490  EF4C  F00A         	goto	u7580
  4482   001494                     u7581:
  4483   001494  EF4F  F00A         	goto	l7593
  4484   001498                     u7580:
  4485   001498  8E46               	bsf	(___fladd@b+2)^0,7,c
  4486   00149A  EF50  F00A         	goto	l7595
  4487   00149E                     l7593:
  4488   00149E  9E46               	bcf	(___fladd@b+2)^0,7,c
  4489   0014A0                     l7595:
  4490   0014A0  90D8               	bcf	status,0,c
  4491   0014A2  3052               	rrcf	___fladd@bexp^0,w,c
  4492   0014A4  6E47               	movwf	(___fladd@b+3)^0,c
  4493   0014A6  AE50               	btfss	___fladd@signs^0,7,c
  4494   0014A8  EF58  F00A         	goto	u7591
  4495   0014AC  EF5A  F00A         	goto	u7590
  4496   0014B0                     u7591:
  4497   0014B0  EF5B  F00A         	goto	l7601
  4498   0014B4                     u7590:
  4499   0014B4  8E47               	bsf	(___fladd@b+3)^0,7,c
  4500   0014B6                     l7601:
  4501   0014B6  C044  F044         	movff	___fladd@b,?___fladd
  4502   0014BA  C045  F045         	movff	___fladd@b+1,?___fladd+1
  4503   0014BE  C046  F046         	movff	___fladd@b+2,?___fladd+2
  4504   0014C2  C047  F047         	movff	___fladd@b+3,?___fladd+3
  4505   0014C6                     l1860:
  4506   0014C6  0012               	return		;funcret
  4507   0014C8                     __end_of___fladd:
  4508                           	callstack 0
  4509                           
  4510 ;; *************** function _Interrupt_Manager *****************
  4511 ;; Defined at:
  4512 ;;		line 30 in file "MCAL_Layer/interrupt/mcal_interrupt_manager.c"
  4513 ;; Parameters:    Size  Location     Type
  4514 ;;		None
  4515 ;; Auto vars:     Size  Location     Type
  4516 ;;		None
  4517 ;; Return value:  Size  Location     Type
  4518 ;;                  1    wreg      void 
  4519 ;; Registers used:
  4520 ;;		wreg, status,2, status,0, pcl, pclath, pclatu, tosl, cstack
  4521 ;; Tracked objects:
  4522 ;;		On entry : 0/0
  4523 ;;		On exit  : 0/0
  4524 ;;		Unchanged: 0/0
  4525 ;; Data sizes:     COMRAM   BANK0   BANK1   BANK2   BANK3   BANK4   BANK5   BANK6   BANK7   BANK8   BANK9  BANK10  BANK1
      +1  BANK12  BANK13  BANK14  BANK15
  4526 ;;      Params:         0       0       0       0       0       0       0       0       0       0       0       0       
      +0       0       0       0       0
  4527 ;;      Locals:         0       0       0       0       0       0       0       0       0       0       0       0       
      +0       0       0       0       0
  4528 ;;      Temps:          2       0       0       0       0       0       0       0       0       0       0       0       
      +0       0       0       0       0
  4529 ;;      Totals:         2       0       0       0       0       0       0       0       0       0       0       0       
      +0       0       0       0       0
  4530 ;;Total ram usage:        2 bytes
  4531 ;; Hardware stack levels used: 1
  4532 ;; Hardware stack levels required when called: 2
  4533 ;; This function calls:
  4534 ;;		_ADC_ISR
  4535 ;;		_CCP1_ISR
  4536 ;;		_CCP2_ISR
  4537 ;;		_INT0_ISR
  4538 ;;		_INT1_ISR
  4539 ;;		_INT2_ISR
  4540 ;;		_RB4_ISR
  4541 ;;		_RB5_ISR
  4542 ;;		_RB6_ISR
  4543 ;;		_RB7_ISR
  4544 ;;		_TIMER0_ISR
  4545 ;;		_TIMER1_ISR
  4546 ;;		_TIMER2_ISR
  4547 ;;		_TIMER3_ISR
  4548 ;; This function is called by:
  4549 ;;		Interrupt level 2
  4550 ;; This function uses a non-reentrant model
  4551 ;;
  4552                           
  4553                           	psect	intcode
  4554   000008                     __pintcode:
  4555                           	callstack 0
  4556   000008                     _Interrupt_Manager:
  4557                           	callstack 25
  4558                           
  4559                           ;incstack = 0
  4560   000008  827C               	bsf	int$flags,1,c	;set compiler interrupt flag (level 2)
  4561   00000A  ED46  F00E         	call	int_func,f	;refresh shadow registers
  4562                           
  4563                           	psect	intcode_body
  4564   001C8C                     __pintcode_body:
  4565                           	callstack 25
  4566   001C8C                     int_func:
  4567                           	callstack 25
  4568   001C8C  0006               	pop		; remove dummy address from shadow register refresh
  4569   001C8E  CFFA F002          	movff	pclath,??_Interrupt_Manager
  4570   001C92  CFFB F003          	movff	pclatu,??_Interrupt_Manager+1
  4571   001C96                     
  4572                           ;MCAL_Layer/interrupt/mcal_interrupt_manager.c: 31:     if((INTCONbits.INT0IE ==1) && (I
      +                          NTCONbits.INT0IF==1)){
  4573   001C96  A8F2               	btfss	242,4,c	;volatile
  4574   001C98  EF50  F00E         	goto	i2u624_41
  4575   001C9C  EF52  F00E         	goto	i2u624_40
  4576   001CA0                     i2u624_41:
  4577   001CA0  EF5B  F00E         	goto	i2l867
  4578   001CA4                     i2u624_40:
  4579   001CA4  A2F2               	btfss	242,1,c	;volatile
  4580   001CA6  EF57  F00E         	goto	i2u625_41
  4581   001CAA  EF59  F00E         	goto	i2u625_40
  4582   001CAE                     i2u625_41:
  4583   001CAE  EF5B  F00E         	goto	i2l867
  4584   001CB2                     i2u625_40:
  4585   001CB2                     
  4586                           ;MCAL_Layer/interrupt/mcal_interrupt_manager.c: 32:     INT0_ISR();
  4587   001CB2  EC20  F017         	call	_INT0_ISR	;wreg free
  4588   001CB6                     i2l867:
  4589                           
  4590                           ;MCAL_Layer/interrupt/mcal_interrupt_manager.c: 35:     if((INTCON3bits.INT1E ==1) && (I
      +                          NTCON3bits.INT1F ==1)){
  4591   001CB6  A6F0               	btfss	240,3,c	;volatile
  4592   001CB8  EF60  F00E         	goto	i2u626_41
  4593   001CBC  EF62  F00E         	goto	i2u626_40
  4594   001CC0                     i2u626_41:
  4595   001CC0  EF6B  F00E         	goto	i2l869
  4596   001CC4                     i2u626_40:
  4597   001CC4  A0F0               	btfss	240,0,c	;volatile
  4598   001CC6  EF67  F00E         	goto	i2u627_41
  4599   001CCA  EF69  F00E         	goto	i2u627_40
  4600   001CCE                     i2u627_41:
  4601   001CCE  EF6B  F00E         	goto	i2l869
  4602   001CD2                     i2u627_40:
  4603   001CD2                     
  4604                           ;MCAL_Layer/interrupt/mcal_interrupt_manager.c: 36:     INT1_ISR();
  4605   001CD2  EC1E  F017         	call	_INT1_ISR	;wreg free
  4606   001CD6                     i2l869:
  4607                           
  4608                           ;MCAL_Layer/interrupt/mcal_interrupt_manager.c: 39:     if((INTCON3bits.INT2E ==1) && (I
      +                          NTCON3bits.INT2F ==1)){
  4609   001CD6  A8F0               	btfss	240,4,c	;volatile
  4610   001CD8  EF70  F00E         	goto	i2u628_41
  4611   001CDC  EF72  F00E         	goto	i2u628_40
  4612   001CE0                     i2u628_41:
  4613   001CE0  EF7B  F00E         	goto	i2l871
  4614   001CE4                     i2u628_40:
  4615   001CE4  A2F0               	btfss	240,1,c	;volatile
  4616   001CE6  EF77  F00E         	goto	i2u629_41
  4617   001CEA  EF79  F00E         	goto	i2u629_40
  4618   001CEE                     i2u629_41:
  4619   001CEE  EF7B  F00E         	goto	i2l871
  4620   001CF2                     i2u629_40:
  4621   001CF2                     
  4622                           ;MCAL_Layer/interrupt/mcal_interrupt_manager.c: 40:     INT2_ISR();
  4623   001CF2  EC1C  F017         	call	_INT2_ISR	;wreg free
  4624   001CF6                     i2l871:
  4625                           
  4626                           ;MCAL_Layer/interrupt/mcal_interrupt_manager.c: 43:     if((INTCONbits.RBIE ==1) && (INT
      +                          CONbits.RBIF ==1) &&
  4627   001CF6  A6F2               	btfss	242,3,c	;volatile
  4628   001CF8  EF80  F00E         	goto	i2u630_41
  4629   001CFC  EF82  F00E         	goto	i2u630_40
  4630   001D00                     i2u630_41:
  4631   001D00  EF9D  F00E         	goto	i2l873
  4632   001D04                     i2u630_40:
  4633   001D04  A0F2               	btfss	242,0,c	;volatile
  4634   001D06  EF87  F00E         	goto	i2u631_41
  4635   001D0A  EF89  F00E         	goto	i2u631_40
  4636   001D0E                     i2u631_41:
  4637   001D0E  EF9D  F00E         	goto	i2l873
  4638   001D12                     i2u631_40:
  4639   001D12  A881               	btfss	129,4,c	;volatile
  4640   001D14  EF8E  F00E         	goto	i2u632_41
  4641   001D18  EF90  F00E         	goto	i2u632_40
  4642   001D1C                     i2u632_41:
  4643   001D1C  EF9D  F00E         	goto	i2l873
  4644   001D20                     i2u632_40:
  4645   001D20  047B               	decf	_RB4_Flag^0,w,c	;volatile
  4646   001D22  A4D8               	btfss	status,2,c
  4647   001D24  EF96  F00E         	goto	i2u633_41
  4648   001D28  EF98  F00E         	goto	i2u633_40
  4649   001D2C                     i2u633_41:
  4650   001D2C  EF9D  F00E         	goto	i2l873
  4651   001D30                     i2u633_40:
  4652   001D30                     
  4653                           ;MCAL_Layer/interrupt/mcal_interrupt_manager.c: 44:         (PORTBbits.RB4 == HIGH)&& (R
      +                          B4_Flag== 1)){;MCAL_Layer/interrupt/mcal_interrupt_manager.c: 45:         RB4_Flag = 0;
  4654   001D30  0E00               	movlw	0
  4655   001D32  6E7B               	movwf	_RB4_Flag^0,c	;volatile
  4656   001D34                     
  4657                           ;MCAL_Layer/interrupt/mcal_interrupt_manager.c: 46:         RB4_ISR(1);
  4658   001D34  0E01               	movlw	1
  4659   001D36  ECFA  F016         	call	_RB4_ISR
  4660   001D3A                     i2l873:
  4661                           
  4662                           ;MCAL_Layer/interrupt/mcal_interrupt_manager.c: 49:     if((INTCONbits.RBIE ==1) && (INT
      +                          CONbits.RBIF ==1)&&
  4663   001D3A  A6F2               	btfss	242,3,c	;volatile
  4664   001D3C  EFA2  F00E         	goto	i2u634_41
  4665   001D40  EFA4  F00E         	goto	i2u634_40
  4666   001D44                     i2u634_41:
  4667   001D44  EFBF  F00E         	goto	i2l875
  4668   001D48                     i2u634_40:
  4669   001D48  A0F2               	btfss	242,0,c	;volatile
  4670   001D4A  EFA9  F00E         	goto	i2u635_41
  4671   001D4E  EFAB  F00E         	goto	i2u635_40
  4672   001D52                     i2u635_41:
  4673   001D52  EFBF  F00E         	goto	i2l875
  4674   001D56                     i2u635_40:
  4675   001D56  B881               	btfsc	129,4,c	;volatile
  4676   001D58  EFB0  F00E         	goto	i2u636_41
  4677   001D5C  EFB2  F00E         	goto	i2u636_40
  4678   001D60                     i2u636_41:
  4679   001D60  EFBF  F00E         	goto	i2l875
  4680   001D64                     i2u636_40:
  4681   001D64  507B               	movf	_RB4_Flag^0,w,c	;volatile
  4682   001D66  A4D8               	btfss	status,2,c
  4683   001D68  EFB8  F00E         	goto	i2u637_41
  4684   001D6C  EFBA  F00E         	goto	i2u637_40
  4685   001D70                     i2u637_41:
  4686   001D70  EFBF  F00E         	goto	i2l875
  4687   001D74                     i2u637_40:
  4688   001D74                     
  4689                           ;MCAL_Layer/interrupt/mcal_interrupt_manager.c: 50:        (PORTBbits.RB4 == LOW)&& (RB4
      +                          _Flag== 0)){;MCAL_Layer/interrupt/mcal_interrupt_manager.c: 51:         RB4_Flag = 1;
  4690   001D74  0E01               	movlw	1
  4691   001D76  6E7B               	movwf	_RB4_Flag^0,c	;volatile
  4692   001D78                     
  4693                           ;MCAL_Layer/interrupt/mcal_interrupt_manager.c: 52:         RB4_ISR(0);
  4694   001D78  0E00               	movlw	0
  4695   001D7A  ECFA  F016         	call	_RB4_ISR
  4696   001D7E                     i2l875:
  4697                           
  4698                           ;MCAL_Layer/interrupt/mcal_interrupt_manager.c: 55:     if((INTCONbits.RBIE ==1) && (INT
      +                          CONbits.RBIF ==1) &&
  4699   001D7E  A6F2               	btfss	242,3,c	;volatile
  4700   001D80  EFC4  F00E         	goto	i2u638_41
  4701   001D84  EFC6  F00E         	goto	i2u638_40
  4702   001D88                     i2u638_41:
  4703   001D88  EFE1  F00E         	goto	i2l877
  4704   001D8C                     i2u638_40:
  4705   001D8C  A0F2               	btfss	242,0,c	;volatile
  4706   001D8E  EFCB  F00E         	goto	i2u639_41
  4707   001D92  EFCD  F00E         	goto	i2u639_40
  4708   001D96                     i2u639_41:
  4709   001D96  EFE1  F00E         	goto	i2l877
  4710   001D9A                     i2u639_40:
  4711   001D9A  AA81               	btfss	129,5,c	;volatile
  4712   001D9C  EFD2  F00E         	goto	i2u640_41
  4713   001DA0  EFD4  F00E         	goto	i2u640_40
  4714   001DA4                     i2u640_41:
  4715   001DA4  EFE1  F00E         	goto	i2l877
  4716   001DA8                     i2u640_40:
  4717   001DA8  047A               	decf	_RB5_Flag^0,w,c	;volatile
  4718   001DAA  A4D8               	btfss	status,2,c
  4719   001DAC  EFDA  F00E         	goto	i2u641_41
  4720   001DB0  EFDC  F00E         	goto	i2u641_40
  4721   001DB4                     i2u641_41:
  4722   001DB4  EFE1  F00E         	goto	i2l877
  4723   001DB8                     i2u641_40:
  4724   001DB8                     
  4725                           ;MCAL_Layer/interrupt/mcal_interrupt_manager.c: 56:         (PORTBbits.RB5 == HIGH)&& (R
      +                          B5_Flag== 1)){;MCAL_Layer/interrupt/mcal_interrupt_manager.c: 57:           RB5_Flag = 0
      +                          ;
  4726   001DB8  0E00               	movlw	0
  4727   001DBA  6E7A               	movwf	_RB5_Flag^0,c	;volatile
  4728   001DBC                     
  4729                           ;MCAL_Layer/interrupt/mcal_interrupt_manager.c: 58:           RB5_ISR(1);
  4730   001DBC  0E01               	movlw	1
  4731   001DBE  ECED  F016         	call	_RB5_ISR
  4732   001DC2                     i2l877:
  4733                           
  4734                           ;MCAL_Layer/interrupt/mcal_interrupt_manager.c: 61:     if((INTCONbits.RBIE ==1) && (INT
      +                          CONbits.RBIF ==1)&&
  4735   001DC2  A6F2               	btfss	242,3,c	;volatile
  4736   001DC4  EFE6  F00E         	goto	i2u642_41
  4737   001DC8  EFE8  F00E         	goto	i2u642_40
  4738   001DCC                     i2u642_41:
  4739   001DCC  EF03  F00F         	goto	i2l879
  4740   001DD0                     i2u642_40:
  4741   001DD0  A0F2               	btfss	242,0,c	;volatile
  4742   001DD2  EFED  F00E         	goto	i2u643_41
  4743   001DD6  EFEF  F00E         	goto	i2u643_40
  4744   001DDA                     i2u643_41:
  4745   001DDA  EF03  F00F         	goto	i2l879
  4746   001DDE                     i2u643_40:
  4747   001DDE  BA81               	btfsc	129,5,c	;volatile
  4748   001DE0  EFF4  F00E         	goto	i2u644_41
  4749   001DE4  EFF6  F00E         	goto	i2u644_40
  4750   001DE8                     i2u644_41:
  4751   001DE8  EF03  F00F         	goto	i2l879
  4752   001DEC                     i2u644_40:
  4753   001DEC  507A               	movf	_RB5_Flag^0,w,c	;volatile
  4754   001DEE  A4D8               	btfss	status,2,c
  4755   001DF0  EFFC  F00E         	goto	i2u645_41
  4756   001DF4  EFFE  F00E         	goto	i2u645_40
  4757   001DF8                     i2u645_41:
  4758   001DF8  EF03  F00F         	goto	i2l879
  4759   001DFC                     i2u645_40:
  4760   001DFC                     
  4761                           ;MCAL_Layer/interrupt/mcal_interrupt_manager.c: 62:         (PORTBbits.RB5 == LOW)&& (RB
      +                          5_Flag== 0)){;MCAL_Layer/interrupt/mcal_interrupt_manager.c: 63:           RB5_Flag = 1;
  4762   001DFC  0E01               	movlw	1
  4763   001DFE  6E7A               	movwf	_RB5_Flag^0,c	;volatile
  4764   001E00                     
  4765                           ;MCAL_Layer/interrupt/mcal_interrupt_manager.c: 64:           RB5_ISR(0);
  4766   001E00  0E00               	movlw	0
  4767   001E02  ECED  F016         	call	_RB5_ISR
  4768   001E06                     i2l879:
  4769                           
  4770                           ;MCAL_Layer/interrupt/mcal_interrupt_manager.c: 67:     if((INTCONbits.RBIE ==1) && (INT
      +                          CONbits.RBIF ==1) &&
  4771   001E06  A6F2               	btfss	242,3,c	;volatile
  4772   001E08  EF08  F00F         	goto	i2u646_41
  4773   001E0C  EF0A  F00F         	goto	i2u646_40
  4774   001E10                     i2u646_41:
  4775   001E10  EF25  F00F         	goto	i2l881
  4776   001E14                     i2u646_40:
  4777   001E14  A0F2               	btfss	242,0,c	;volatile
  4778   001E16  EF0F  F00F         	goto	i2u647_41
  4779   001E1A  EF11  F00F         	goto	i2u647_40
  4780   001E1E                     i2u647_41:
  4781   001E1E  EF25  F00F         	goto	i2l881
  4782   001E22                     i2u647_40:
  4783   001E22  AC81               	btfss	129,6,c	;volatile
  4784   001E24  EF16  F00F         	goto	i2u648_41
  4785   001E28  EF18  F00F         	goto	i2u648_40
  4786   001E2C                     i2u648_41:
  4787   001E2C  EF25  F00F         	goto	i2l881
  4788   001E30                     i2u648_40:
  4789   001E30  0479               	decf	_RB6_Flag^0,w,c	;volatile
  4790   001E32  A4D8               	btfss	status,2,c
  4791   001E34  EF1E  F00F         	goto	i2u649_41
  4792   001E38  EF20  F00F         	goto	i2u649_40
  4793   001E3C                     i2u649_41:
  4794   001E3C  EF25  F00F         	goto	i2l881
  4795   001E40                     i2u649_40:
  4796   001E40                     
  4797                           ;MCAL_Layer/interrupt/mcal_interrupt_manager.c: 68:        (PORTBbits.RB6 == HIGH)&& (RB
      +                          6_Flag== 1)){;MCAL_Layer/interrupt/mcal_interrupt_manager.c: 69:           RB6_Flag = 0;
  4798   001E40  0E00               	movlw	0
  4799   001E42  6E79               	movwf	_RB6_Flag^0,c	;volatile
  4800   001E44                     
  4801                           ;MCAL_Layer/interrupt/mcal_interrupt_manager.c: 70:           RB6_ISR(1);
  4802   001E44  0E01               	movlw	1
  4803   001E46  ECE0  F016         	call	_RB6_ISR
  4804   001E4A                     i2l881:
  4805                           
  4806                           ;MCAL_Layer/interrupt/mcal_interrupt_manager.c: 73:     if((INTCONbits.RBIE ==1) && (INT
      +                          CONbits.RBIF ==1)&&
  4807   001E4A  A6F2               	btfss	242,3,c	;volatile
  4808   001E4C  EF2A  F00F         	goto	i2u650_41
  4809   001E50  EF2C  F00F         	goto	i2u650_40
  4810   001E54                     i2u650_41:
  4811   001E54  EF47  F00F         	goto	i2l883
  4812   001E58                     i2u650_40:
  4813   001E58  A0F2               	btfss	242,0,c	;volatile
  4814   001E5A  EF31  F00F         	goto	i2u651_41
  4815   001E5E  EF33  F00F         	goto	i2u651_40
  4816   001E62                     i2u651_41:
  4817   001E62  EF47  F00F         	goto	i2l883
  4818   001E66                     i2u651_40:
  4819   001E66  BC81               	btfsc	129,6,c	;volatile
  4820   001E68  EF38  F00F         	goto	i2u652_41
  4821   001E6C  EF3A  F00F         	goto	i2u652_40
  4822   001E70                     i2u652_41:
  4823   001E70  EF47  F00F         	goto	i2l883
  4824   001E74                     i2u652_40:
  4825   001E74  5079               	movf	_RB6_Flag^0,w,c	;volatile
  4826   001E76  A4D8               	btfss	status,2,c
  4827   001E78  EF40  F00F         	goto	i2u653_41
  4828   001E7C  EF42  F00F         	goto	i2u653_40
  4829   001E80                     i2u653_41:
  4830   001E80  EF47  F00F         	goto	i2l883
  4831   001E84                     i2u653_40:
  4832   001E84                     
  4833                           ;MCAL_Layer/interrupt/mcal_interrupt_manager.c: 74:         (PORTBbits.RB6 == LOW)&& (RB
      +                          6_Flag== 0)){;MCAL_Layer/interrupt/mcal_interrupt_manager.c: 75:           RB6_Flag = 1;
  4834   001E84  0E01               	movlw	1
  4835   001E86  6E79               	movwf	_RB6_Flag^0,c	;volatile
  4836   001E88                     
  4837                           ;MCAL_Layer/interrupt/mcal_interrupt_manager.c: 76:           RB6_ISR(0);
  4838   001E88  0E00               	movlw	0
  4839   001E8A  ECE0  F016         	call	_RB6_ISR
  4840   001E8E                     i2l883:
  4841                           
  4842                           ;MCAL_Layer/interrupt/mcal_interrupt_manager.c: 79:     if((INTCONbits.RBIE ==1) && (INT
      +                          CONbits.RBIF ==1) &&
  4843   001E8E  A6F2               	btfss	242,3,c	;volatile
  4844   001E90  EF4C  F00F         	goto	i2u654_41
  4845   001E94  EF4E  F00F         	goto	i2u654_40
  4846   001E98                     i2u654_41:
  4847   001E98  EF69  F00F         	goto	i2l885
  4848   001E9C                     i2u654_40:
  4849   001E9C  A0F2               	btfss	242,0,c	;volatile
  4850   001E9E  EF53  F00F         	goto	i2u655_41
  4851   001EA2  EF55  F00F         	goto	i2u655_40
  4852   001EA6                     i2u655_41:
  4853   001EA6  EF69  F00F         	goto	i2l885
  4854   001EAA                     i2u655_40:
  4855   001EAA  AE81               	btfss	129,7,c	;volatile
  4856   001EAC  EF5A  F00F         	goto	i2u656_41
  4857   001EB0  EF5C  F00F         	goto	i2u656_40
  4858   001EB4                     i2u656_41:
  4859   001EB4  EF69  F00F         	goto	i2l885
  4860   001EB8                     i2u656_40:
  4861   001EB8  0478               	decf	_RB7_Flag^0,w,c	;volatile
  4862   001EBA  A4D8               	btfss	status,2,c
  4863   001EBC  EF62  F00F         	goto	i2u657_41
  4864   001EC0  EF64  F00F         	goto	i2u657_40
  4865   001EC4                     i2u657_41:
  4866   001EC4  EF69  F00F         	goto	i2l885
  4867   001EC8                     i2u657_40:
  4868   001EC8                     
  4869                           ;MCAL_Layer/interrupt/mcal_interrupt_manager.c: 80:         (PORTBbits.RB7 == HIGH)&& (R
      +                          B7_Flag== 1)){;MCAL_Layer/interrupt/mcal_interrupt_manager.c: 81:           RB7_Flag = 0
      +                          ;
  4870   001EC8  0E00               	movlw	0
  4871   001ECA  6E78               	movwf	_RB7_Flag^0,c	;volatile
  4872   001ECC                     
  4873                           ;MCAL_Layer/interrupt/mcal_interrupt_manager.c: 82:           RB7_ISR(1);
  4874   001ECC  0E01               	movlw	1
  4875   001ECE  ECD3  F016         	call	_RB7_ISR
  4876   001ED2                     i2l885:
  4877                           
  4878                           ;MCAL_Layer/interrupt/mcal_interrupt_manager.c: 85:     if((INTCONbits.RBIE ==1) && (INT
      +                          CONbits.RBIF ==1)&&
  4879   001ED2  A6F2               	btfss	242,3,c	;volatile
  4880   001ED4  EF6E  F00F         	goto	i2u658_41
  4881   001ED8  EF70  F00F         	goto	i2u658_40
  4882   001EDC                     i2u658_41:
  4883   001EDC  EF8B  F00F         	goto	i2l887
  4884   001EE0                     i2u658_40:
  4885   001EE0  A0F2               	btfss	242,0,c	;volatile
  4886   001EE2  EF75  F00F         	goto	i2u659_41
  4887   001EE6  EF77  F00F         	goto	i2u659_40
  4888   001EEA                     i2u659_41:
  4889   001EEA  EF8B  F00F         	goto	i2l887
  4890   001EEE                     i2u659_40:
  4891   001EEE  BE81               	btfsc	129,7,c	;volatile
  4892   001EF0  EF7C  F00F         	goto	i2u660_41
  4893   001EF4  EF7E  F00F         	goto	i2u660_40
  4894   001EF8                     i2u660_41:
  4895   001EF8  EF8B  F00F         	goto	i2l887
  4896   001EFC                     i2u660_40:
  4897   001EFC  5078               	movf	_RB7_Flag^0,w,c	;volatile
  4898   001EFE  A4D8               	btfss	status,2,c
  4899   001F00  EF84  F00F         	goto	i2u661_41
  4900   001F04  EF86  F00F         	goto	i2u661_40
  4901   001F08                     i2u661_41:
  4902   001F08  EF8B  F00F         	goto	i2l887
  4903   001F0C                     i2u661_40:
  4904   001F0C                     
  4905                           ;MCAL_Layer/interrupt/mcal_interrupt_manager.c: 86:        (PORTBbits.RB7 == LOW)&& (RB7
      +                          _Flag== 0)){;MCAL_Layer/interrupt/mcal_interrupt_manager.c: 87:           RB7_Flag = 1;
  4906   001F0C  0E01               	movlw	1
  4907   001F0E  6E78               	movwf	_RB7_Flag^0,c	;volatile
  4908   001F10                     
  4909                           ;MCAL_Layer/interrupt/mcal_interrupt_manager.c: 88:           RB7_ISR(0);
  4910   001F10  0E00               	movlw	0
  4911   001F12  ECD3  F016         	call	_RB7_ISR
  4912   001F16                     i2l887:
  4913                           
  4914                           ;MCAL_Layer/interrupt/mcal_interrupt_manager.c: 91:     if((PIE1bits.ADIE ==1) && (PIR1b
      +                          its.ADIF==1)){
  4915   001F16  AC9D               	btfss	157,6,c	;volatile
  4916   001F18  EF90  F00F         	goto	i2u662_41
  4917   001F1C  EF92  F00F         	goto	i2u662_40
  4918   001F20                     i2u662_41:
  4919   001F20  EF9B  F00F         	goto	i2l889
  4920   001F24                     i2u662_40:
  4921   001F24  AC9E               	btfss	158,6,c	;volatile
  4922   001F26  EF97  F00F         	goto	i2u663_41
  4923   001F2A  EF99  F00F         	goto	i2u663_40
  4924   001F2E                     i2u663_41:
  4925   001F2E  EF9B  F00F         	goto	i2l889
  4926   001F32                     i2u663_40:
  4927   001F32                     
  4928                           ;MCAL_Layer/interrupt/mcal_interrupt_manager.c: 92:     ADC_ISR();
  4929   001F32  EC24  F017         	call	_ADC_ISR	;wreg free
  4930   001F36                     i2l889:
  4931                           
  4932                           ;MCAL_Layer/interrupt/mcal_interrupt_manager.c: 95: if((INTCONbits.TMR0IE ==1) && (INTCO
      +                          Nbits.TMR0IF ==1)){
  4933   001F36  AAF2               	btfss	242,5,c	;volatile
  4934   001F38  EFA0  F00F         	goto	i2u664_41
  4935   001F3C  EFA2  F00F         	goto	i2u664_40
  4936   001F40                     i2u664_41:
  4937   001F40  EFAB  F00F         	goto	i2l891
  4938   001F44                     i2u664_40:
  4939   001F44  A4F2               	btfss	242,2,c	;volatile
  4940   001F46  EFA7  F00F         	goto	i2u665_41
  4941   001F4A  EFA9  F00F         	goto	i2u665_40
  4942   001F4E                     i2u665_41:
  4943   001F4E  EFAB  F00F         	goto	i2l891
  4944   001F52                     i2u665_40:
  4945   001F52                     
  4946                           ;MCAL_Layer/interrupt/mcal_interrupt_manager.c: 96:     TIMER0_ISR();
  4947   001F52  EC14  F017         	call	_TIMER0_ISR	;wreg free
  4948   001F56                     i2l891:
  4949                           
  4950                           ;MCAL_Layer/interrupt/mcal_interrupt_manager.c: 99: if((PIE1bits.TMR1IE ==1) && (PIR1bit
      +                          s.TMR1IF ==1)){
  4951   001F56  A09D               	btfss	157,0,c	;volatile
  4952   001F58  EFB0  F00F         	goto	i2u666_41
  4953   001F5C  EFB2  F00F         	goto	i2u666_40
  4954   001F60                     i2u666_41:
  4955   001F60  EFBB  F00F         	goto	i2l893
  4956   001F64                     i2u666_40:
  4957   001F64  A09E               	btfss	158,0,c	;volatile
  4958   001F66  EFB7  F00F         	goto	i2u667_41
  4959   001F6A  EFB9  F00F         	goto	i2u667_40
  4960   001F6E                     i2u667_41:
  4961   001F6E  EFBB  F00F         	goto	i2l893
  4962   001F72                     i2u667_40:
  4963   001F72                     
  4964                           ;MCAL_Layer/interrupt/mcal_interrupt_manager.c: 100:     TIMER1_ISR();
  4965   001F72  EC0E  F017         	call	_TIMER1_ISR	;wreg free
  4966   001F76                     i2l893:
  4967                           
  4968                           ;MCAL_Layer/interrupt/mcal_interrupt_manager.c: 103: if((PIE1bits.TMR2IE ==1) && (PIR1bi
      +                          ts.TMR2IF ==1)){
  4969   001F76  A29D               	btfss	157,1,c	;volatile
  4970   001F78  EFC0  F00F         	goto	i2u668_41
  4971   001F7C  EFC2  F00F         	goto	i2u668_40
  4972   001F80                     i2u668_41:
  4973   001F80  EFCB  F00F         	goto	i2l895
  4974   001F84                     i2u668_40:
  4975   001F84  A29E               	btfss	158,1,c	;volatile
  4976   001F86  EFC7  F00F         	goto	i2u669_41
  4977   001F8A  EFC9  F00F         	goto	i2u669_40
  4978   001F8E                     i2u669_41:
  4979   001F8E  EFCB  F00F         	goto	i2l895
  4980   001F92                     i2u669_40:
  4981   001F92                     
  4982                           ;MCAL_Layer/interrupt/mcal_interrupt_manager.c: 104:     TIMER2_ISR();
  4983   001F92  EC73  F016         	call	_TIMER2_ISR	;wreg free
  4984   001F96                     i2l895:
  4985                           
  4986                           ;MCAL_Layer/interrupt/mcal_interrupt_manager.c: 107: if((PIE2bits.TMR3IE ==1) && (PIR2bi
      +                          ts.TMR3IF ==1)){
  4987   001F96  A2A0               	btfss	160,1,c	;volatile
  4988   001F98  EFD0  F00F         	goto	i2u670_41
  4989   001F9C  EFD2  F00F         	goto	i2u670_40
  4990   001FA0                     i2u670_41:
  4991   001FA0  EFDB  F00F         	goto	i2l897
  4992   001FA4                     i2u670_40:
  4993   001FA4  A2A1               	btfss	161,1,c	;volatile
  4994   001FA6  EFD7  F00F         	goto	i2u671_41
  4995   001FAA  EFD9  F00F         	goto	i2u671_40
  4996   001FAE                     i2u671_41:
  4997   001FAE  EFDB  F00F         	goto	i2l897
  4998   001FB2                     i2u671_40:
  4999   001FB2                     
  5000                           ;MCAL_Layer/interrupt/mcal_interrupt_manager.c: 108:     TIMER3_ISR();
  5001   001FB2  EC07  F017         	call	_TIMER3_ISR	;wreg free
  5002   001FB6                     i2l897:
  5003                           
  5004                           ;MCAL_Layer/interrupt/mcal_interrupt_manager.c: 112: if((PIE1bits.CCP1IE ==1) && (PIR1bi
      +                          ts.CCP1IF ==1)){
  5005   001FB6  A49D               	btfss	157,2,c	;volatile
  5006   001FB8  EFE0  F00F         	goto	i2u672_41
  5007   001FBC  EFE2  F00F         	goto	i2u672_40
  5008   001FC0                     i2u672_41:
  5009   001FC0  EFEB  F00F         	goto	i2l899
  5010   001FC4                     i2u672_40:
  5011   001FC4  A49E               	btfss	158,2,c	;volatile
  5012   001FC6  EFE7  F00F         	goto	i2u673_41
  5013   001FCA  EFE9  F00F         	goto	i2u673_40
  5014   001FCE                     i2u673_41:
  5015   001FCE  EFEB  F00F         	goto	i2l899
  5016   001FD2                     i2u673_40:
  5017   001FD2                     
  5018                           ;MCAL_Layer/interrupt/mcal_interrupt_manager.c: 113:     CCP1_ISR();
  5019   001FD2  EC22  F017         	call	_CCP1_ISR	;wreg free
  5020   001FD6                     i2l899:
  5021                           
  5022                           ;MCAL_Layer/interrupt/mcal_interrupt_manager.c: 116: if((PIE2bits.CCP2IE ==1) && (PIR2bi
      +                          ts.CCP2IF ==1)){
  5023   001FD6  A0A0               	btfss	160,0,c	;volatile
  5024   001FD8  EFF0  F00F         	goto	i2u674_41
  5025   001FDC  EFF2  F00F         	goto	i2u674_40
  5026   001FE0                     i2u674_41:
  5027   001FE0  EFFB  F00F         	goto	i2l902
  5028   001FE4                     i2u674_40:
  5029   001FE4  A0A1               	btfss	161,0,c	;volatile
  5030   001FE6  EFF7  F00F         	goto	i2u675_41
  5031   001FEA  EFF9  F00F         	goto	i2u675_40
  5032   001FEE                     i2u675_41:
  5033   001FEE  EFFB  F00F         	goto	i2l902
  5034   001FF2                     i2u675_40:
  5035   001FF2                     
  5036                           ;MCAL_Layer/interrupt/mcal_interrupt_manager.c: 117:     CCP2_ISR();
  5037   001FF2  ECA4  F016         	call	_CCP2_ISR	;wreg free
  5038   001FF6                     i2l902:
  5039   001FF6  C003  FFFB         	movff	??_Interrupt_Manager+1,pclatu
  5040   001FFA  C002  FFFA         	movff	??_Interrupt_Manager,pclath
  5041   001FFE  927C               	bcf	int$flags,1,c	;clear compiler interrupt flag (level 2)
  5042   002000  0011               	retfie		f
  5043   002002                     __end_of_Interrupt_Manager:
  5044                           	callstack 0
  5045                           
  5046 ;; *************** function _TIMER3_ISR *****************
  5047 ;; Defined at:
  5048 ;;		line 112 in file "MCAL_Layer/Timer3/hal_timer3.c"
  5049 ;; Parameters:    Size  Location     Type
  5050 ;;		None
  5051 ;; Auto vars:     Size  Location     Type
  5052 ;;		None
  5053 ;; Return value:  Size  Location     Type
  5054 ;;                  1    wreg      void 
  5055 ;; Registers used:
  5056 ;;		wreg, status,2
  5057 ;; Tracked objects:
  5058 ;;		On entry : 0/0
  5059 ;;		On exit  : 0/0
  5060 ;;		Unchanged: 0/0
  5061 ;; Data sizes:     COMRAM   BANK0   BANK1   BANK2   BANK3   BANK4   BANK5   BANK6   BANK7   BANK8   BANK9  BANK10  BANK1
      +1  BANK12  BANK13  BANK14  BANK15
  5062 ;;      Params:         0       0       0       0       0       0       0       0       0       0       0       0       
      +0       0       0       0       0
  5063 ;;      Locals:         0       0       0       0       0       0       0       0       0       0       0       0       
      +0       0       0       0       0
  5064 ;;      Temps:          0       0       0       0       0       0       0       0       0       0       0       0       
      +0       0       0       0       0
  5065 ;;      Totals:         0       0       0       0       0       0       0       0       0       0       0       0       
      +0       0       0       0       0
  5066 ;;Total ram usage:        0 bytes
  5067 ;; Hardware stack levels used: 1
  5068 ;; This function calls:
  5069 ;;		Nothing
  5070 ;; This function is called by:
  5071 ;;		_Interrupt_Manager
  5072 ;; This function uses a non-reentrant model
  5073 ;;
  5074                           
  5075                           	psect	text14
  5076   002E0E                     __ptext14:
  5077                           	callstack 0
  5078   002E0E                     _TIMER3_ISR:
  5079                           	callstack 26
  5080   002E0E                     
  5081                           ;MCAL_Layer/Timer3/hal_timer3.c: 113: (PIR2bits.TMR3IF = 0);
  5082   002E0E  92A1               	bcf	161,1,c	;volatile
  5083   002E10                     
  5084                           ;MCAL_Layer/Timer3/hal_timer3.c: 114: TMR3H = (timer3_preload)>>8;
  5085   002E10  0100               	movlb	0	; () banked
  5086   002E12  518F               	movf	(_timer3_preload+1)& (0+255),w,b
  5087   002E14  6EB3               	movwf	179,c	;volatile
  5088   002E16                     
  5089                           ; BSR set to: 0
  5090                           ;MCAL_Layer/Timer3/hal_timer3.c: 115: TMR3L = (uint_8)(timer3_preload);
  5091   002E16  C08E  FFB2         	movff	_timer3_preload,4018	;volatile
  5092   002E1A                     
  5093                           ; BSR set to: 0
  5094   002E1A  0012               	return		;funcret
  5095   002E1C                     __end_of_TIMER3_ISR:
  5096                           	callstack 0
  5097                           
  5098 ;; *************** function _TIMER2_ISR *****************
  5099 ;; Defined at:
  5100 ;;		line 89 in file "MCAL_Layer/Timer2/hal_timer2.c"
  5101 ;; Parameters:    Size  Location     Type
  5102 ;;		None
  5103 ;; Auto vars:     Size  Location     Type
  5104 ;;		None
  5105 ;; Return value:  Size  Location     Type
  5106 ;;                  1    wreg      void 
  5107 ;; Registers used:
  5108 ;;		wreg, status,2, status,0, pcl, pclath, pclatu, tosl, cstack
  5109 ;; Tracked objects:
  5110 ;;		On entry : 0/0
  5111 ;;		On exit  : 0/0
  5112 ;;		Unchanged: 0/0
  5113 ;; Data sizes:     COMRAM   BANK0   BANK1   BANK2   BANK3   BANK4   BANK5   BANK6   BANK7   BANK8   BANK9  BANK10  BANK1
      +1  BANK12  BANK13  BANK14  BANK15
  5114 ;;      Params:         0       0       0       0       0       0       0       0       0       0       0       0       
      +0       0       0       0       0
  5115 ;;      Locals:         0       0       0       0       0       0       0       0       0       0       0       0       
      +0       0       0       0       0
  5116 ;;      Temps:          0       0       0       0       0       0       0       0       0       0       0       0       
      +0       0       0       0       0
  5117 ;;      Totals:         0       0       0       0       0       0       0       0       0       0       0       0       
      +0       0       0       0       0
  5118 ;;Total ram usage:        0 bytes
  5119 ;; Hardware stack levels used: 1
  5120 ;; Hardware stack levels required when called: 1
  5121 ;; This function calls:
  5122 ;;		NULL
  5123 ;; This function is called by:
  5124 ;;		_Interrupt_Manager
  5125 ;; This function uses a non-reentrant model
  5126 ;;
  5127                           
  5128                           	psect	text15
  5129   002CE6                     __ptext15:
  5130                           	callstack 0
  5131   002CE6                     _TIMER2_ISR:
  5132                           	callstack 25
  5133   002CE6                     
  5134                           ;MCAL_Layer/Timer2/hal_timer2.c: 90:   (PIR1bits.TMR2IF = 0);
  5135   002CE6  929E               	bcf	158,1,c	;volatile
  5136                           
  5137                           ;MCAL_Layer/Timer2/hal_timer2.c: 91:   TMR2 = timer2_preloaded;
  5138   002CE8  C070  FFCC         	movff	_timer2_preloaded,4044	;volatile
  5139   002CEC                     
  5140                           ;MCAL_Layer/Timer2/hal_timer2.c: 92:   if(TMR2_Interrupt_Hundeler){
  5141   002CEC  506A               	movf	_TMR2_Interrupt_Hundeler^0,w,c
  5142   002CEE  106B               	iorwf	(_TMR2_Interrupt_Hundeler+1)^0,w,c
  5143   002CF0  B4D8               	btfsc	status,2,c
  5144   002CF2  EF7D  F016         	goto	i2u144_41
  5145   002CF6  EF7F  F016         	goto	i2u144_40
  5146   002CFA                     i2u144_41:
  5147   002CFA  EF8B  F016         	goto	i2l1063
  5148   002CFE                     i2u144_40:
  5149   002CFE                     
  5150                           ;MCAL_Layer/Timer2/hal_timer2.c: 93:       TMR2_Interrupt_Hundeler();
  5151   002CFE  D802               	call	i2u145_48
  5152   002D00  EF8B  F016         	goto	i2u145_49
  5153   002D04                     i2u145_48:
  5154   002D04  0005               	push	
  5155   002D06  6EFA               	movwf	pclath,c
  5156   002D08  506A               	movf	_TMR2_Interrupt_Hundeler^0,w,c
  5157   002D0A  6EFD               	movwf	tosl,c
  5158   002D0C  506B               	movf	(_TMR2_Interrupt_Hundeler+1)^0,w,c
  5159   002D0E  6EFE               	movwf	tosh,c
  5160   002D10  6AFF               	clrf	tosu,c
  5161   002D12  50FA               	movf	pclath,w,c
  5162   002D14  0012               	return		;indir
  5163   002D16                     i2u145_49:
  5164   002D16                     i2l1063:
  5165   002D16  0012               	return		;funcret
  5166   002D18                     __end_of_TIMER2_ISR:
  5167                           	callstack 0
  5168                           
  5169 ;; *************** function _TIMER1_ISR *****************
  5170 ;; Defined at:
  5171 ;;		line 116 in file "MCAL_Layer/Timer1/hal_timer1.c"
  5172 ;; Parameters:    Size  Location     Type
  5173 ;;		None
  5174 ;; Auto vars:     Size  Location     Type
  5175 ;;		None
  5176 ;; Return value:  Size  Location     Type
  5177 ;;                  1    wreg      void 
  5178 ;; Registers used:
  5179 ;;		wreg, status,2
  5180 ;; Tracked objects:
  5181 ;;		On entry : 0/0
  5182 ;;		On exit  : 0/0
  5183 ;;		Unchanged: 0/0
  5184 ;; Data sizes:     COMRAM   BANK0   BANK1   BANK2   BANK3   BANK4   BANK5   BANK6   BANK7   BANK8   BANK9  BANK10  BANK1
      +1  BANK12  BANK13  BANK14  BANK15
  5185 ;;      Params:         0       0       0       0       0       0       0       0       0       0       0       0       
      +0       0       0       0       0
  5186 ;;      Locals:         0       0       0       0       0       0       0       0       0       0       0       0       
      +0       0       0       0       0
  5187 ;;      Temps:          0       0       0       0       0       0       0       0       0       0       0       0       
      +0       0       0       0       0
  5188 ;;      Totals:         0       0       0       0       0       0       0       0       0       0       0       0       
      +0       0       0       0       0
  5189 ;;Total ram usage:        0 bytes
  5190 ;; Hardware stack levels used: 1
  5191 ;; This function calls:
  5192 ;;		Nothing
  5193 ;; This function is called by:
  5194 ;;		_Interrupt_Manager
  5195 ;; This function uses a non-reentrant model
  5196 ;;
  5197                           
  5198                           	psect	text16
  5199   002E1C                     __ptext16:
  5200                           	callstack 0
  5201   002E1C                     _TIMER1_ISR:
  5202                           	callstack 26
  5203   002E1C                     
  5204                           ;MCAL_Layer/Timer1/hal_timer1.c: 117: (PIR1bits.TMR1IF = 0);
  5205   002E1C  909E               	bcf	158,0,c	;volatile
  5206   002E1E                     
  5207                           ;MCAL_Layer/Timer1/hal_timer1.c: 118: TMR1H = (timer1_preload) >> 8;
  5208   002E1E  506D               	movf	(_timer1_preload+1)^0,w,c
  5209   002E20  6ECF               	movwf	207,c	;volatile
  5210   002E22                     
  5211                           ;MCAL_Layer/Timer1/hal_timer1.c: 119: TMR1L = (uint_8)(timer1_preload);
  5212   002E22  C06C  FFCE         	movff	_timer1_preload,4046	;volatile
  5213   002E26  0012               	return		;funcret
  5214   002E28                     __end_of_TIMER1_ISR:
  5215                           	callstack 0
  5216                           
  5217 ;; *************** function _TIMER0_ISR *****************
  5218 ;; Defined at:
  5219 ;;		line 95 in file "MCAL_Layer/Timer/hal_Timer0.c"
  5220 ;; Parameters:    Size  Location     Type
  5221 ;;		None
  5222 ;; Auto vars:     Size  Location     Type
  5223 ;;		None
  5224 ;; Return value:  Size  Location     Type
  5225 ;;                  1    wreg      void 
  5226 ;; Registers used:
  5227 ;;		wreg, status,2
  5228 ;; Tracked objects:
  5229 ;;		On entry : 0/0
  5230 ;;		On exit  : 0/0
  5231 ;;		Unchanged: 0/0
  5232 ;; Data sizes:     COMRAM   BANK0   BANK1   BANK2   BANK3   BANK4   BANK5   BANK6   BANK7   BANK8   BANK9  BANK10  BANK1
      +1  BANK12  BANK13  BANK14  BANK15
  5233 ;;      Params:         0       0       0       0       0       0       0       0       0       0       0       0       
      +0       0       0       0       0
  5234 ;;      Locals:         0       0       0       0       0       0       0       0       0       0       0       0       
      +0       0       0       0       0
  5235 ;;      Temps:          0       0       0       0       0       0       0       0       0       0       0       0       
      +0       0       0       0       0
  5236 ;;      Totals:         0       0       0       0       0       0       0       0       0       0       0       0       
      +0       0       0       0       0
  5237 ;;Total ram usage:        0 bytes
  5238 ;; Hardware stack levels used: 1
  5239 ;; This function calls:
  5240 ;;		Nothing
  5241 ;; This function is called by:
  5242 ;;		_Interrupt_Manager
  5243 ;; This function uses a non-reentrant model
  5244 ;;
  5245                           
  5246                           	psect	text17
  5247   002E28                     __ptext17:
  5248                           	callstack 0
  5249   002E28                     _TIMER0_ISR:
  5250                           	callstack 26
  5251   002E28                     
  5252                           ;MCAL_Layer/Timer/hal_Timer0.c: 96: (INTCONbits.TMR0IF = 0);
  5253   002E28  94F2               	bcf	242,2,c	;volatile
  5254   002E2A                     
  5255                           ;MCAL_Layer/Timer/hal_Timer0.c: 97: TMR0H = (timer0_preload)>>8;
  5256   002E2A  506F               	movf	(_timer0_preload+1)^0,w,c
  5257   002E2C  6ED7               	movwf	215,c	;volatile
  5258   002E2E                     
  5259                           ;MCAL_Layer/Timer/hal_Timer0.c: 98: TMR0L = (uint_8)(timer0_preload);
  5260   002E2E  C06E  FFD6         	movff	_timer0_preload,4054	;volatile
  5261   002E32  0012               	return		;funcret
  5262   002E34                     __end_of_TIMER0_ISR:
  5263                           	callstack 0
  5264                           
  5265 ;; *************** function _RB7_ISR *****************
  5266 ;; Defined at:
  5267 ;;		line 500 in file "MCAL_Layer/interrupt/mcal_external_interrupt.c"
  5268 ;; Parameters:    Size  Location     Type
  5269 ;;  source          1    wreg     unsigned char 
  5270 ;; Auto vars:     Size  Location     Type
  5271 ;;  source          1    0[COMRAM] unsigned char 
  5272 ;; Return value:  Size  Location     Type
  5273 ;;                  1    wreg      void 
  5274 ;; Registers used:
  5275 ;;		wreg, status,2, status,0
  5276 ;; Tracked objects:
  5277 ;;		On entry : 0/0
  5278 ;;		On exit  : 0/0
  5279 ;;		Unchanged: 0/0
  5280 ;; Data sizes:     COMRAM   BANK0   BANK1   BANK2   BANK3   BANK4   BANK5   BANK6   BANK7   BANK8   BANK9  BANK10  BANK1
      +1  BANK12  BANK13  BANK14  BANK15
  5281 ;;      Params:         0       0       0       0       0       0       0       0       0       0       0       0       
      +0       0       0       0       0
  5282 ;;      Locals:         1       0       0       0       0       0       0       0       0       0       0       0       
      +0       0       0       0       0
  5283 ;;      Temps:          0       0       0       0       0       0       0       0       0       0       0       0       
      +0       0       0       0       0
  5284 ;;      Totals:         1       0       0       0       0       0       0       0       0       0       0       0       
      +0       0       0       0       0
  5285 ;;Total ram usage:        1 bytes
  5286 ;; Hardware stack levels used: 1
  5287 ;; This function calls:
  5288 ;;		Nothing
  5289 ;; This function is called by:
  5290 ;;		_Interrupt_Manager
  5291 ;; This function uses a non-reentrant model
  5292 ;;
  5293                           
  5294                           	psect	text18
  5295   002DA6                     __ptext18:
  5296                           	callstack 0
  5297   002DA6                     _RB7_ISR:
  5298                           	callstack 26
  5299                           
  5300                           ;incstack = 0
  5301                           ;RB7_ISR@source stored from wreg
  5302   002DA6  6E01               	movwf	RB7_ISR@source^0,c
  5303   002DA8                     
  5304                           ;MCAL_Layer/interrupt/mcal_external_interrupt.c: 501:  (INTCONbits.RBIF = 0);
  5305   002DA8  90F2               	bcf	242,0,c	;volatile
  5306   002DAA                     
  5307                           ;MCAL_Layer/interrupt/mcal_external_interrupt.c: 502: if(source == 0){
  5308   002DAA  5001               	movf	RB7_ISR@source^0,w,c
  5309   002DAC  A4D8               	btfss	status,2,c
  5310   002DAE  EFDB  F016         	goto	i2u513_41
  5311   002DB2  EFDD  F016         	goto	i2u513_40
  5312   002DB6                     i2u513_41:
  5313   002DB6  EFDF  F016         	goto	i2l5773
  5314   002DBA                     i2u513_40:
  5315   002DBA  EFDF  F016         	goto	i2l811
  5316   002DBE                     i2l5773:
  5317   002DBE                     i2l811:
  5318   002DBE  0012               	return		;funcret
  5319   002DC0                     __end_of_RB7_ISR:
  5320                           	callstack 0
  5321                           
  5322 ;; *************** function _RB6_ISR *****************
  5323 ;; Defined at:
  5324 ;;		line 488 in file "MCAL_Layer/interrupt/mcal_external_interrupt.c"
  5325 ;; Parameters:    Size  Location     Type
  5326 ;;  source          1    wreg     unsigned char 
  5327 ;; Auto vars:     Size  Location     Type
  5328 ;;  source          1    0[COMRAM] unsigned char 
  5329 ;; Return value:  Size  Location     Type
  5330 ;;                  1    wreg      void 
  5331 ;; Registers used:
  5332 ;;		wreg, status,2, status,0
  5333 ;; Tracked objects:
  5334 ;;		On entry : 0/0
  5335 ;;		On exit  : 0/0
  5336 ;;		Unchanged: 0/0
  5337 ;; Data sizes:     COMRAM   BANK0   BANK1   BANK2   BANK3   BANK4   BANK5   BANK6   BANK7   BANK8   BANK9  BANK10  BANK1
      +1  BANK12  BANK13  BANK14  BANK15
  5338 ;;      Params:         0       0       0       0       0       0       0       0       0       0       0       0       
      +0       0       0       0       0
  5339 ;;      Locals:         1       0       0       0       0       0       0       0       0       0       0       0       
      +0       0       0       0       0
  5340 ;;      Temps:          0       0       0       0       0       0       0       0       0       0       0       0       
      +0       0       0       0       0
  5341 ;;      Totals:         1       0       0       0       0       0       0       0       0       0       0       0       
      +0       0       0       0       0
  5342 ;;Total ram usage:        1 bytes
  5343 ;; Hardware stack levels used: 1
  5344 ;; This function calls:
  5345 ;;		Nothing
  5346 ;; This function is called by:
  5347 ;;		_Interrupt_Manager
  5348 ;; This function uses a non-reentrant model
  5349 ;;
  5350                           
  5351                           	psect	text19
  5352   002DC0                     __ptext19:
  5353                           	callstack 0
  5354   002DC0                     _RB6_ISR:
  5355                           	callstack 26
  5356                           
  5357                           ;incstack = 0
  5358                           ;RB6_ISR@source stored from wreg
  5359   002DC0  6E01               	movwf	RB6_ISR@source^0,c
  5360   002DC2                     
  5361                           ;MCAL_Layer/interrupt/mcal_external_interrupt.c: 489:  (INTCONbits.RBIF = 0);
  5362   002DC2  90F2               	bcf	242,0,c	;volatile
  5363   002DC4                     
  5364                           ;MCAL_Layer/interrupt/mcal_external_interrupt.c: 490: if(source == 0){
  5365   002DC4  5001               	movf	RB6_ISR@source^0,w,c
  5366   002DC6  A4D8               	btfss	status,2,c
  5367   002DC8  EFE8  F016         	goto	i2u512_41
  5368   002DCC  EFEA  F016         	goto	i2u512_40
  5369   002DD0                     i2u512_41:
  5370   002DD0  EFEC  F016         	goto	i2l5759
  5371   002DD4                     i2u512_40:
  5372   002DD4  EFEC  F016         	goto	i2l800
  5373   002DD8                     i2l5759:
  5374   002DD8                     i2l800:
  5375   002DD8  0012               	return		;funcret
  5376   002DDA                     __end_of_RB6_ISR:
  5377                           	callstack 0
  5378                           
  5379 ;; *************** function _RB5_ISR *****************
  5380 ;; Defined at:
  5381 ;;		line 476 in file "MCAL_Layer/interrupt/mcal_external_interrupt.c"
  5382 ;; Parameters:    Size  Location     Type
  5383 ;;  source          1    wreg     unsigned char 
  5384 ;; Auto vars:     Size  Location     Type
  5385 ;;  source          1    0[COMRAM] unsigned char 
  5386 ;; Return value:  Size  Location     Type
  5387 ;;                  1    wreg      void 
  5388 ;; Registers used:
  5389 ;;		wreg, status,2, status,0
  5390 ;; Tracked objects:
  5391 ;;		On entry : 0/0
  5392 ;;		On exit  : 0/0
  5393 ;;		Unchanged: 0/0
  5394 ;; Data sizes:     COMRAM   BANK0   BANK1   BANK2   BANK3   BANK4   BANK5   BANK6   BANK7   BANK8   BANK9  BANK10  BANK1
      +1  BANK12  BANK13  BANK14  BANK15
  5395 ;;      Params:         0       0       0       0       0       0       0       0       0       0       0       0       
      +0       0       0       0       0
  5396 ;;      Locals:         1       0       0       0       0       0       0       0       0       0       0       0       
      +0       0       0       0       0
  5397 ;;      Temps:          0       0       0       0       0       0       0       0       0       0       0       0       
      +0       0       0       0       0
  5398 ;;      Totals:         1       0       0       0       0       0       0       0       0       0       0       0       
      +0       0       0       0       0
  5399 ;;Total ram usage:        1 bytes
  5400 ;; Hardware stack levels used: 1
  5401 ;; This function calls:
  5402 ;;		Nothing
  5403 ;; This function is called by:
  5404 ;;		_Interrupt_Manager
  5405 ;; This function uses a non-reentrant model
  5406 ;;
  5407                           
  5408                           	psect	text20
  5409   002DDA                     __ptext20:
  5410                           	callstack 0
  5411   002DDA                     _RB5_ISR:
  5412                           	callstack 26
  5413                           
  5414                           ;incstack = 0
  5415                           ;RB5_ISR@source stored from wreg
  5416   002DDA  6E01               	movwf	RB5_ISR@source^0,c
  5417   002DDC                     
  5418                           ;MCAL_Layer/interrupt/mcal_external_interrupt.c: 477:  (INTCONbits.RBIF = 0);
  5419   002DDC  90F2               	bcf	242,0,c	;volatile
  5420   002DDE                     
  5421                           ;MCAL_Layer/interrupt/mcal_external_interrupt.c: 478: if(source == 0){
  5422   002DDE  5001               	movf	RB5_ISR@source^0,w,c
  5423   002DE0  A4D8               	btfss	status,2,c
  5424   002DE2  EFF5  F016         	goto	i2u511_41
  5425   002DE6  EFF7  F016         	goto	i2u511_40
  5426   002DEA                     i2u511_41:
  5427   002DEA  EFF9  F016         	goto	i2l5745
  5428   002DEE                     i2u511_40:
  5429   002DEE  EFF9  F016         	goto	i2l789
  5430   002DF2                     i2l5745:
  5431   002DF2                     i2l789:
  5432   002DF2  0012               	return		;funcret
  5433   002DF4                     __end_of_RB5_ISR:
  5434                           	callstack 0
  5435                           
  5436 ;; *************** function _RB4_ISR *****************
  5437 ;; Defined at:
  5438 ;;		line 463 in file "MCAL_Layer/interrupt/mcal_external_interrupt.c"
  5439 ;; Parameters:    Size  Location     Type
  5440 ;;  source          1    wreg     unsigned char 
  5441 ;; Auto vars:     Size  Location     Type
  5442 ;;  source          1    0[COMRAM] unsigned char 
  5443 ;; Return value:  Size  Location     Type
  5444 ;;                  1    wreg      void 
  5445 ;; Registers used:
  5446 ;;		wreg, status,2, status,0
  5447 ;; Tracked objects:
  5448 ;;		On entry : 0/0
  5449 ;;		On exit  : 0/0
  5450 ;;		Unchanged: 0/0
  5451 ;; Data sizes:     COMRAM   BANK0   BANK1   BANK2   BANK3   BANK4   BANK5   BANK6   BANK7   BANK8   BANK9  BANK10  BANK1
      +1  BANK12  BANK13  BANK14  BANK15
  5452 ;;      Params:         0       0       0       0       0       0       0       0       0       0       0       0       
      +0       0       0       0       0
  5453 ;;      Locals:         1       0       0       0       0       0       0       0       0       0       0       0       
      +0       0       0       0       0
  5454 ;;      Temps:          0       0       0       0       0       0       0       0       0       0       0       0       
      +0       0       0       0       0
  5455 ;;      Totals:         1       0       0       0       0       0       0       0       0       0       0       0       
      +0       0       0       0       0
  5456 ;;Total ram usage:        1 bytes
  5457 ;; Hardware stack levels used: 1
  5458 ;; This function calls:
  5459 ;;		Nothing
  5460 ;; This function is called by:
  5461 ;;		_Interrupt_Manager
  5462 ;; This function uses a non-reentrant model
  5463 ;;
  5464                           
  5465                           	psect	text21
  5466   002DF4                     __ptext21:
  5467                           	callstack 0
  5468   002DF4                     _RB4_ISR:
  5469                           	callstack 26
  5470                           
  5471                           ;incstack = 0
  5472                           ;RB4_ISR@source stored from wreg
  5473   002DF4  6E01               	movwf	RB4_ISR@source^0,c
  5474   002DF6                     
  5475                           ;MCAL_Layer/interrupt/mcal_external_interrupt.c: 464: (INTCONbits.RBIF = 0);
  5476   002DF6  90F2               	bcf	242,0,c	;volatile
  5477   002DF8                     
  5478                           ;MCAL_Layer/interrupt/mcal_external_interrupt.c: 466: if(source == 0){
  5479   002DF8  5001               	movf	RB4_ISR@source^0,w,c
  5480   002DFA  A4D8               	btfss	status,2,c
  5481   002DFC  EF02  F017         	goto	i2u510_41
  5482   002E00  EF04  F017         	goto	i2u510_40
  5483   002E04                     i2u510_41:
  5484   002E04  EF06  F017         	goto	i2l5731
  5485   002E08                     i2u510_40:
  5486   002E08  EF06  F017         	goto	i2l778
  5487   002E0C                     i2l5731:
  5488   002E0C                     i2l778:
  5489   002E0C  0012               	return		;funcret
  5490   002E0E                     __end_of_RB4_ISR:
  5491                           	callstack 0
  5492                           
  5493 ;; *************** function _INT2_ISR *****************
  5494 ;; Defined at:
  5495 ;;		line 454 in file "MCAL_Layer/interrupt/mcal_external_interrupt.c"
  5496 ;; Parameters:    Size  Location     Type
  5497 ;;		None
  5498 ;; Auto vars:     Size  Location     Type
  5499 ;;		None
  5500 ;; Return value:  Size  Location     Type
  5501 ;;                  1    wreg      void 
  5502 ;; Registers used:
  5503 ;;		None
  5504 ;; Tracked objects:
  5505 ;;		On entry : 0/0
  5506 ;;		On exit  : 0/0
  5507 ;;		Unchanged: 0/0
  5508 ;; Data sizes:     COMRAM   BANK0   BANK1   BANK2   BANK3   BANK4   BANK5   BANK6   BANK7   BANK8   BANK9  BANK10  BANK1
      +1  BANK12  BANK13  BANK14  BANK15
  5509 ;;      Params:         0       0       0       0       0       0       0       0       0       0       0       0       
      +0       0       0       0       0
  5510 ;;      Locals:         0       0       0       0       0       0       0       0       0       0       0       0       
      +0       0       0       0       0
  5511 ;;      Temps:          0       0       0       0       0       0       0       0       0       0       0       0       
      +0       0       0       0       0
  5512 ;;      Totals:         0       0       0       0       0       0       0       0       0       0       0       0       
      +0       0       0       0       0
  5513 ;;Total ram usage:        0 bytes
  5514 ;; Hardware stack levels used: 1
  5515 ;; This function calls:
  5516 ;;		Nothing
  5517 ;; This function is called by:
  5518 ;;		_Interrupt_Manager
  5519 ;; This function uses a non-reentrant model
  5520 ;;
  5521                           
  5522                           	psect	text22
  5523   002E38                     __ptext22:
  5524                           	callstack 0
  5525   002E38                     _INT2_ISR:
  5526                           	callstack 26
  5527   002E38                     
  5528                           ;MCAL_Layer/interrupt/mcal_external_interrupt.c: 456:     (INTCON3bits.INT2IF = 0);
  5529   002E38  92F0               	bcf	240,1,c	;volatile
  5530   002E3A  0012               	return		;funcret
  5531   002E3C                     __end_of_INT2_ISR:
  5532                           	callstack 0
  5533                           
  5534 ;; *************** function _INT1_ISR *****************
  5535 ;; Defined at:
  5536 ;;		line 446 in file "MCAL_Layer/interrupt/mcal_external_interrupt.c"
  5537 ;; Parameters:    Size  Location     Type
  5538 ;;		None
  5539 ;; Auto vars:     Size  Location     Type
  5540 ;;		None
  5541 ;; Return value:  Size  Location     Type
  5542 ;;                  1    wreg      void 
  5543 ;; Registers used:
  5544 ;;		None
  5545 ;; Tracked objects:
  5546 ;;		On entry : 0/0
  5547 ;;		On exit  : 0/0
  5548 ;;		Unchanged: 0/0
  5549 ;; Data sizes:     COMRAM   BANK0   BANK1   BANK2   BANK3   BANK4   BANK5   BANK6   BANK7   BANK8   BANK9  BANK10  BANK1
      +1  BANK12  BANK13  BANK14  BANK15
  5550 ;;      Params:         0       0       0       0       0       0       0       0       0       0       0       0       
      +0       0       0       0       0
  5551 ;;      Locals:         0       0       0       0       0       0       0       0       0       0       0       0       
      +0       0       0       0       0
  5552 ;;      Temps:          0       0       0       0       0       0       0       0       0       0       0       0       
      +0       0       0       0       0
  5553 ;;      Totals:         0       0       0       0       0       0       0       0       0       0       0       0       
      +0       0       0       0       0
  5554 ;;Total ram usage:        0 bytes
  5555 ;; Hardware stack levels used: 1
  5556 ;; This function calls:
  5557 ;;		Nothing
  5558 ;; This function is called by:
  5559 ;;		_Interrupt_Manager
  5560 ;; This function uses a non-reentrant model
  5561 ;;
  5562                           
  5563                           	psect	text23
  5564   002E3C                     __ptext23:
  5565                           	callstack 0
  5566   002E3C                     _INT1_ISR:
  5567                           	callstack 26
  5568   002E3C                     
  5569                           ;MCAL_Layer/interrupt/mcal_external_interrupt.c: 448:     (INTCON3bits.INT1IF = 0);
  5570   002E3C  90F0               	bcf	240,0,c	;volatile
  5571   002E3E  0012               	return		;funcret
  5572   002E40                     __end_of_INT1_ISR:
  5573                           	callstack 0
  5574                           
  5575 ;; *************** function _INT0_ISR *****************
  5576 ;; Defined at:
  5577 ;;		line 438 in file "MCAL_Layer/interrupt/mcal_external_interrupt.c"
  5578 ;; Parameters:    Size  Location     Type
  5579 ;;		None
  5580 ;; Auto vars:     Size  Location     Type
  5581 ;;		None
  5582 ;; Return value:  Size  Location     Type
  5583 ;;                  1    wreg      void 
  5584 ;; Registers used:
  5585 ;;		None
  5586 ;; Tracked objects:
  5587 ;;		On entry : 0/0
  5588 ;;		On exit  : 0/0
  5589 ;;		Unchanged: 0/0
  5590 ;; Data sizes:     COMRAM   BANK0   BANK1   BANK2   BANK3   BANK4   BANK5   BANK6   BANK7   BANK8   BANK9  BANK10  BANK1
      +1  BANK12  BANK13  BANK14  BANK15
  5591 ;;      Params:         0       0       0       0       0       0       0       0       0       0       0       0       
      +0       0       0       0       0
  5592 ;;      Locals:         0       0       0       0       0       0       0       0       0       0       0       0       
      +0       0       0       0       0
  5593 ;;      Temps:          0       0       0       0       0       0       0       0       0       0       0       0       
      +0       0       0       0       0
  5594 ;;      Totals:         0       0       0       0       0       0       0       0       0       0       0       0       
      +0       0       0       0       0
  5595 ;;Total ram usage:        0 bytes
  5596 ;; Hardware stack levels used: 1
  5597 ;; This function calls:
  5598 ;;		Nothing
  5599 ;; This function is called by:
  5600 ;;		_Interrupt_Manager
  5601 ;; This function uses a non-reentrant model
  5602 ;;
  5603                           
  5604                           	psect	text24
  5605   002E40                     __ptext24:
  5606                           	callstack 0
  5607   002E40                     _INT0_ISR:
  5608                           	callstack 26
  5609   002E40                     
  5610                           ;MCAL_Layer/interrupt/mcal_external_interrupt.c: 440:     (INTCONbits.INT0IF = 0);
  5611   002E40  92F2               	bcf	242,1,c	;volatile
  5612   002E42  0012               	return		;funcret
  5613   002E44                     __end_of_INT0_ISR:
  5614                           	callstack 0
  5615                           
  5616 ;; *************** function _CCP2_ISR *****************
  5617 ;; Defined at:
  5618 ;;		line 456 in file "MCAL_Layer/CCP1/hal_ccp.c"
  5619 ;; Parameters:    Size  Location     Type
  5620 ;;		None
  5621 ;; Auto vars:     Size  Location     Type
  5622 ;;		None
  5623 ;; Return value:  Size  Location     Type
  5624 ;;                  1    wreg      void 
  5625 ;; Registers used:
  5626 ;;		wreg, status,2, status,0, pcl, pclath, pclatu, tosl, cstack
  5627 ;; Tracked objects:
  5628 ;;		On entry : 0/0
  5629 ;;		On exit  : 0/0
  5630 ;;		Unchanged: 0/0
  5631 ;; Data sizes:     COMRAM   BANK0   BANK1   BANK2   BANK3   BANK4   BANK5   BANK6   BANK7   BANK8   BANK9  BANK10  BANK1
      +1  BANK12  BANK13  BANK14  BANK15
  5632 ;;      Params:         0       0       0       0       0       0       0       0       0       0       0       0       
      +0       0       0       0       0
  5633 ;;      Locals:         0       0       0       0       0       0       0       0       0       0       0       0       
      +0       0       0       0       0
  5634 ;;      Temps:          0       0       0       0       0       0       0       0       0       0       0       0       
      +0       0       0       0       0
  5635 ;;      Totals:         0       0       0       0       0       0       0       0       0       0       0       0       
      +0       0       0       0       0
  5636 ;;Total ram usage:        0 bytes
  5637 ;; Hardware stack levels used: 1
  5638 ;; Hardware stack levels required when called: 1
  5639 ;; This function calls:
  5640 ;;		NULL
  5641 ;; This function is called by:
  5642 ;;		_Interrupt_Manager
  5643 ;; This function uses a non-reentrant model
  5644 ;;
  5645                           
  5646                           	psect	text25
  5647   002D48                     __ptext25:
  5648                           	callstack 0
  5649   002D48                     _CCP2_ISR:
  5650                           	callstack 25
  5651   002D48                     
  5652                           ;MCAL_Layer/CCP1/hal_ccp.c: 457: (PIR2bits.CCP2IF = 0);
  5653   002D48  90A1               	bcf	161,0,c	;volatile
  5654   002D4A                     
  5655                           ;MCAL_Layer/CCP1/hal_ccp.c: 458: if(CCP2_Interrupt_Hundeler){
  5656   002D4A  0100               	movlb	0	; () banked
  5657   002D4C  518A               	movf	_CCP2_Interrupt_Hundeler& (0+255),w,b
  5658   002D4E  118B               	iorwf	(_CCP2_Interrupt_Hundeler+1)& (0+255),w,b
  5659   002D50  B4D8               	btfsc	status,2,c
  5660   002D52  EFAD  F016         	goto	i2u514_41
  5661   002D56  EFAF  F016         	goto	i2u514_40
  5662   002D5A                     i2u514_41:
  5663   002D5A  EFBB  F016         	goto	i2l1312
  5664   002D5E                     i2u514_40:
  5665   002D5E                     
  5666                           ; BSR set to: 0
  5667                           ;MCAL_Layer/CCP1/hal_ccp.c: 459: CCP2_Interrupt_Hundeler();
  5668   002D5E  D802               	call	i2u515_48
  5669   002D60  EFBB  F016         	goto	i2u515_49
  5670   002D64                     i2u515_48:
  5671   002D64  0005               	push	
  5672   002D66  6EFA               	movwf	pclath,c
  5673   002D68  518A               	movf	_CCP2_Interrupt_Hundeler& (0+255),w,b
  5674   002D6A  6EFD               	movwf	tosl,c
  5675   002D6C  518B               	movf	(_CCP2_Interrupt_Hundeler+1)& (0+255),w,b
  5676   002D6E  6EFE               	movwf	tosh,c
  5677   002D70  6AFF               	clrf	tosu,c
  5678   002D72  50FA               	movf	pclath,w,c
  5679   002D74  0012               	return		;indir
  5680   002D76                     i2u515_49:
  5681   002D76                     i2l1312:
  5682   002D76  0012               	return		;funcret
  5683   002D78                     __end_of_CCP2_ISR:
  5684                           	callstack 0
  5685                           
  5686 ;; *************** function _CCP1_ISR *****************
  5687 ;; Defined at:
  5688 ;;		line 449 in file "MCAL_Layer/CCP1/hal_ccp.c"
  5689 ;; Parameters:    Size  Location     Type
  5690 ;;		None
  5691 ;; Auto vars:     Size  Location     Type
  5692 ;;		None
  5693 ;; Return value:  Size  Location     Type
  5694 ;;                  1    wreg      void 
  5695 ;; Registers used:
  5696 ;;		None
  5697 ;; Tracked objects:
  5698 ;;		On entry : 0/0
  5699 ;;		On exit  : 0/0
  5700 ;;		Unchanged: 0/0
  5701 ;; Data sizes:     COMRAM   BANK0   BANK1   BANK2   BANK3   BANK4   BANK5   BANK6   BANK7   BANK8   BANK9  BANK10  BANK1
      +1  BANK12  BANK13  BANK14  BANK15
  5702 ;;      Params:         0       0       0       0       0       0       0       0       0       0       0       0       
      +0       0       0       0       0
  5703 ;;      Locals:         0       0       0       0       0       0       0       0       0       0       0       0       
      +0       0       0       0       0
  5704 ;;      Temps:          0       0       0       0       0       0       0       0       0       0       0       0       
      +0       0       0       0       0
  5705 ;;      Totals:         0       0       0       0       0       0       0       0       0       0       0       0       
      +0       0       0       0       0
  5706 ;;Total ram usage:        0 bytes
  5707 ;; Hardware stack levels used: 1
  5708 ;; This function calls:
  5709 ;;		Nothing
  5710 ;; This function is called by:
  5711 ;;		_Interrupt_Manager
  5712 ;; This function uses a non-reentrant model
  5713 ;;
  5714                           
  5715                           	psect	text26
  5716   002E44                     __ptext26:
  5717                           	callstack 0
  5718   002E44                     _CCP1_ISR:
  5719                           	callstack 26
  5720   002E44                     
  5721                           ;MCAL_Layer/CCP1/hal_ccp.c: 450: (PIR1bits.CCP1IF = 0);
  5722   002E44  949E               	bcf	158,2,c	;volatile
  5723   002E46  0012               	return		;funcret
  5724   002E48                     __end_of_CCP1_ISR:
  5725                           	callstack 0
  5726                           
  5727 ;; *************** function _ADC_ISR *****************
  5728 ;; Defined at:
  5729 ;;		line 265 in file "MCAL_Layer/ADC/hal_adc.c"
  5730 ;; Parameters:    Size  Location     Type
  5731 ;;		None
  5732 ;; Auto vars:     Size  Location     Type
  5733 ;;		None
  5734 ;; Return value:  Size  Location     Type
  5735 ;;                  1    wreg      void 
  5736 ;; Registers used:
  5737 ;;		None
  5738 ;; Tracked objects:
  5739 ;;		On entry : 0/0
  5740 ;;		On exit  : 0/0
  5741 ;;		Unchanged: 0/0
  5742 ;; Data sizes:     COMRAM   BANK0   BANK1   BANK2   BANK3   BANK4   BANK5   BANK6   BANK7   BANK8   BANK9  BANK10  BANK1
      +1  BANK12  BANK13  BANK14  BANK15
  5743 ;;      Params:         0       0       0       0       0       0       0       0       0       0       0       0       
      +0       0       0       0       0
  5744 ;;      Locals:         0       0       0       0       0       0       0       0       0       0       0       0       
      +0       0       0       0       0
  5745 ;;      Temps:          0       0       0       0       0       0       0       0       0       0       0       0       
      +0       0       0       0       0
  5746 ;;      Totals:         0       0       0       0       0       0       0       0       0       0       0       0       
      +0       0       0       0       0
  5747 ;;Total ram usage:        0 bytes
  5748 ;; Hardware stack levels used: 1
  5749 ;; This function calls:
  5750 ;;		Nothing
  5751 ;; This function is called by:
  5752 ;;		_Interrupt_Manager
  5753 ;; This function uses a non-reentrant model
  5754 ;;
  5755                           
  5756                           	psect	text27
  5757   002E48                     __ptext27:
  5758                           	callstack 0
  5759   002E48                     _ADC_ISR:
  5760                           	callstack 26
  5761   002E48                     
  5762                           ;MCAL_Layer/ADC/hal_adc.c: 266: (PIR1bits.ADIF = 0);
  5763   002E48  9C9E               	bcf	158,6,c	;volatile
  5764   002E4A  0012               	return		;funcret
  5765   002E4C                     __end_of_ADC_ISR:
  5766                           	callstack 0
  5767                           
  5768                           	psect	rparam
  5769   000000                     
  5770                           	psect	temp
  5771   00007C                     btemp:
  5772                           	callstack 0
  5773   00007C                     	ds	1
  5774   000000                     int$flags	set	btemp
  5775   000000                     wtemp8	set	btemp+1
  5776   000000                     ttemp5	set	btemp+1
  5777   000000                     ttemp6	set	btemp+4
  5778   000000                     ttemp7	set	btemp+8
  5779                           
  5780                           	psect	config
  5781                           
  5782                           ; Padding undefined space
  5783   300000                     	org	3145728
  5784   300000  FF                 	db	255
  5785                           
  5786                           ;Config register CONFIG1H @ 0x300001
  5787                           ;	Oscillator Selection bits
  5788                           ;	OSC = HS, HS oscillator
  5789                           ;	Fail-Safe Clock Monitor Enable bit
  5790                           ;	FCMEN = OFF, Fail-Safe Clock Monitor disabled
  5791                           ;	Internal/External Oscillator Switchover bit
  5792                           ;	IESO = OFF, Oscillator Switchover mode disabled
  5793   300001                     	org	3145729
  5794   300001  02                 	db	2
  5795                           
  5796                           ;Config register CONFIG2L @ 0x300002
  5797                           ;	Power-up Timer Enable bit
  5798                           ;	PWRT = OFF, PWRT disabled
  5799                           ;	Brown-out Reset Enable bits
  5800                           ;	BOREN = SBORDIS, Brown-out Reset enabled in hardware only (SBOREN is disabled)
  5801                           ;	Brown Out Reset Voltage bits
  5802                           ;	BORV = 3, Minimum setting
  5803   300002                     	org	3145730
  5804   300002  1F                 	db	31
  5805                           
  5806                           ;Config register CONFIG2H @ 0x300003
  5807                           ;	Watchdog Timer Enable bit
  5808                           ;	WDT = OFF, WDT disabled (control is placed on the SWDTEN bit)
  5809                           ;	Watchdog Timer Postscale Select bits
  5810                           ;	WDTPS = 32768, 1:32768
  5811   300003                     	org	3145731
  5812   300003  1E                 	db	30
  5813                           
  5814                           ; Padding undefined space
  5815   300004                     	org	3145732
  5816   300004  FF                 	db	255
  5817                           
  5818                           ;Config register CONFIG3H @ 0x300005
  5819                           ;	CCP2 MUX bit
  5820                           ;	CCP2MX = PORTC, CCP2 input/output is multiplexed with RC1
  5821                           ;	PORTB A/D Enable bit
  5822                           ;	PBADEN = OFF, PORTB<4:0> pins are configured as digital I/O on Reset
  5823                           ;	Low-Power Timer1 Oscillator Enable bit
  5824                           ;	LPT1OSC = OFF, Timer1 configured for higher power operation
  5825                           ;	MCLR Pin Enable bit
  5826                           ;	MCLRE = ON, MCLR pin enabled; RE3 input pin disabled
  5827   300005                     	org	3145733
  5828   300005  81                 	db	129
  5829                           
  5830                           ;Config register CONFIG4L @ 0x300006
  5831                           ;	Stack Full/Underflow Reset Enable bit
  5832                           ;	STVREN = ON, Stack full/underflow will cause Reset
  5833                           ;	Single-Supply ICSP Enable bit
  5834                           ;	LVP = OFF, Single-Supply ICSP disabled
  5835                           ;	Extended Instruction Set Enable bit
  5836                           ;	XINST = OFF, Instruction set extension and Indexed Addressing mode disabled (Legacy mo
      +                          de)
  5837                           ;	Background Debugger Enable bit
  5838                           ;	DEBUG = 0x1, unprogrammed default
  5839   300006                     	org	3145734
  5840   300006  81                 	db	129
  5841                           
  5842                           ; Padding undefined space
  5843   300007                     	org	3145735
  5844   300007  FF                 	db	255
  5845                           
  5846                           ;Config register CONFIG5L @ 0x300008
  5847                           ;	Code Protection bit
  5848                           ;	CP0 = OFF, Block 0 (000800-003FFFh) not code-protected
  5849                           ;	Code Protection bit
  5850                           ;	CP1 = OFF, Block 1 (004000-007FFFh) not code-protected
  5851                           ;	Code Protection bit
  5852                           ;	CP2 = OFF, Block 2 (008000-00BFFFh) not code-protected
  5853                           ;	Code Protection bit
  5854                           ;	CP3 = OFF, Block 3 (00C000-00FFFFh) not code-protected
  5855   300008                     	org	3145736
  5856   300008  0F                 	db	15
  5857                           
  5858                           ;Config register CONFIG5H @ 0x300009
  5859                           ;	Boot Block Code Protection bit
  5860                           ;	CPB = OFF, Boot block (000000-0007FFh) not code-protected
  5861                           ;	Data EEPROM Code Protection bit
  5862                           ;	CPD = OFF, Data EEPROM not code-protected
  5863   300009                     	org	3145737
  5864   300009  C0                 	db	192
  5865                           
  5866                           ;Config register CONFIG6L @ 0x30000A
  5867                           ;	Write Protection bit
  5868                           ;	WRT0 = OFF, Block 0 (000800-003FFFh) not write-protected
  5869                           ;	Write Protection bit
  5870                           ;	WRT1 = OFF, Block 1 (004000-007FFFh) not write-protected
  5871                           ;	Write Protection bit
  5872                           ;	WRT2 = OFF, Block 2 (008000-00BFFFh) not write-protected
  5873                           ;	Write Protection bit
  5874                           ;	WRT3 = OFF, Block 3 (00C000-00FFFFh) not write-protected
  5875   30000A                     	org	3145738
  5876   30000A  0F                 	db	15
  5877                           
  5878                           ;Config register CONFIG6H @ 0x30000B
  5879                           ;	Configuration Register Write Protection bit
  5880                           ;	WRTC = OFF, Configuration registers (300000-3000FFh) not write-protected
  5881                           ;	Boot Block Write Protection bit
  5882                           ;	WRTB = OFF, Boot Block (000000-0007FFh) not write-protected
  5883                           ;	Data EEPROM Write Protection bit
  5884                           ;	WRTD = OFF, Data EEPROM not write-protected
  5885   30000B                     	org	3145739
  5886   30000B  E0                 	db	224
  5887                           
  5888                           ;Config register CONFIG7L @ 0x30000C
  5889                           ;	Table Read Protection bit
  5890                           ;	EBTR0 = OFF, Block 0 (000800-003FFFh) not protected from table reads executed in other
      +                           blocks
  5891                           ;	Table Read Protection bit
  5892                           ;	EBTR1 = OFF, Block 1 (004000-007FFFh) not protected from table reads executed in other
      +                           blocks
  5893                           ;	Table Read Protection bit
  5894                           ;	EBTR2 = OFF, Block 2 (008000-00BFFFh) not protected from table reads executed in other
      +                           blocks
  5895                           ;	Table Read Protection bit
  5896                           ;	EBTR3 = OFF, Block 3 (00C000-00FFFFh) not protected from table reads executed in other
      +                           blocks
  5897   30000C                     	org	3145740
  5898   30000C  0F                 	db	15
  5899                           
  5900                           ;Config register CONFIG7H @ 0x30000D
  5901                           ;	Boot Block Table Read Protection bit
  5902                           ;	EBTRB = OFF, Boot Block (000000-0007FFh) not protected from table reads executed in ot
      +                          her blocks
  5903   30000D                     	org	3145741
  5904   30000D  40                 	db	64
  5905                           tosu	equ	0xFFF
  5906                           tosh	equ	0xFFE
  5907                           tosl	equ	0xFFD
  5908                           stkptr	equ	0xFFC
  5909                           pclatu	equ	0xFFB
  5910                           pclath	equ	0xFFA
  5911                           pcl	equ	0xFF9
  5912                           tblptru	equ	0xFF8
  5913                           tblptrh	equ	0xFF7
  5914                           tblptrl	equ	0xFF6
  5915                           tablat	equ	0xFF5
  5916                           prodh	equ	0xFF4
  5917                           prodl	equ	0xFF3
  5918                           indf0	equ	0xFEF
  5919                           postinc0	equ	0xFEE
  5920                           postdec0	equ	0xFED
  5921                           preinc0	equ	0xFEC
  5922                           plusw0	equ	0xFEB
  5923                           fsr0h	equ	0xFEA
  5924                           fsr0l	equ	0xFE9
  5925                           wreg	equ	0xFE8
  5926                           indf1	equ	0xFE7
  5927                           postinc1	equ	0xFE6
  5928                           postdec1	equ	0xFE5
  5929                           preinc1	equ	0xFE4
  5930                           plusw1	equ	0xFE3
  5931                           fsr1h	equ	0xFE2
  5932                           fsr1l	equ	0xFE1
  5933                           bsr	equ	0xFE0
  5934                           indf2	equ	0xFDF
  5935                           postinc2	equ	0xFDE
  5936                           postdec2	equ	0xFDD
  5937                           preinc2	equ	0xFDC
  5938                           plusw2	equ	0xFDB
  5939                           fsr2h	equ	0xFDA
  5940                           fsr2l	equ	0xFD9
  5941                           status	equ	0xFD8

Data Sizes:
    Strings     6
    Constant    0
    Data        98
    BSS         93
    Persistent  0
    Stack       0

Auto Spaces:
    Space          Size  Autos    Used
    COMRAM          126    105     123
    BANK0           128      2     127
    BANK1           256      9      57
    BANK2           256      0       0
    BANK3           256      0       0
    BANK4           256      0       0
    BANK5           256      0       0
    BANK6           256      0       0
    BANK7           256      0       0
    BANK8           256      0       0
    BANK9           256      0       0
    BANK10          256      0       0
    BANK11          256      0       0
    BANK12          256      0       0
    BANK13          256      0       0
    BANK14          256      0       0
    BANK15          128      0       0

Pointer List with Targets:

    vfprintf$2	PTR PTR void  size(2) Largest target is 2
		 -> sprintf@ap(COMRAM[2]), 

    vfprintf$1	PTR const unsigned char  size(2) Largest target is 3
		 -> STR_6(CODE[3]), STR_4(CODE[3]), STR_2(CODE[3]), 

    vfprintf$0	PTR struct _IO_FILE size(2) Largest target is 12
		 -> sprintf@f(COMRAM[12]), 

    S3728$source	PTR const unsigned char  size(2) Largest target is 0

    f...source	PTR const unsigned char  size(2) Largest target is 0

    S3728$buffer	PTR unsigned char  size(2) Largest target is 0

    f...buffer	PTR unsigned char  size(2) Largest target is 0

    ccp_capture_mode_timer_select@ccp_obj.CCP2_Interrupt_Hundeler	PTR FTN()void  size(2) Largest target is 0

    ccp_capture_mode_timer_select@ccp_obj.CCP1_Interrupt_Hundeler	PTR FTN()void  size(2) Largest target is 0
		 -> NULL(NULL[0]), 

    CCP_PWM_Stop@ccp_obj.CCP2_Interrupt_Hundeler	PTR FTN()void  size(2) Largest target is 0

    CCP_PWM_Stop@ccp_obj.CCP1_Interrupt_Hundeler	PTR FTN()void  size(2) Largest target is 0
		 -> NULL(NULL[0]), 

    CCP_PWM_Start@ccp_obj.CCP2_Interrupt_Hundeler	PTR FTN()void  size(2) Largest target is 0

    CCP_PWM_Start@ccp_obj.CCP1_Interrupt_Hundeler	PTR FTN()void  size(2) Largest target is 0
		 -> NULL(NULL[0]), 

    CCP_PWM_Start@ccp_obj	PTR const struct . size(2) Largest target is 14
		 -> ccp2_obj(BANK0[14]), ccp1_obj(BANK0[14]), 

    CCP_PWM_Set_Duty@ccp_obj.CCP2_Interrupt_Hundeler	PTR FTN()void  size(2) Largest target is 0

    CCP_PWM_Set_Duty@ccp_obj.CCP1_Interrupt_Hundeler	PTR FTN()void  size(2) Largest target is 0
		 -> NULL(NULL[0]), 

    CCP_PWM_Set_Duty@ccp_obj	PTR const struct . size(2) Largest target is 14
		 -> ccp2_obj(BANK0[14]), ccp1_obj(BANK0[14]), 

    CCP_PWM_Deinit@ccp_obj.CCP2_Interrupt_Hundeler	PTR FTN()void  size(2) Largest target is 0

    CCP_PWM_Deinit@ccp_obj.CCP1_Interrupt_Hundeler	PTR FTN()void  size(2) Largest target is 0
		 -> NULL(NULL[0]), 

    CCP_PWM_Init@ccp_obj.CCP2_Interrupt_Hundeler	PTR FTN()void  size(2) Largest target is 0

    CCP_PWM_Init@ccp_obj.CCP1_Interrupt_Hundeler	PTR FTN()void  size(2) Largest target is 0
		 -> NULL(NULL[0]), 

    CCP_PWM_Init@ccp_obj	PTR const struct . size(2) Largest target is 14
		 -> ccp2_obj(BANK0[14]), ccp1_obj(BANK0[14]), 

    CCP1_COMPARE_Deinit@ccp_obj.CCP2_Interrupt_Hundeler	PTR FTN()void  size(2) Largest target is 0

    CCP1_COMPARE_Deinit@ccp_obj.CCP1_Interrupt_Hundeler	PTR FTN()void  size(2) Largest target is 0
		 -> NULL(NULL[0]), 

    CCP1_COMPARE_Init@ccp_obj.CCP2_Interrupt_Hundeler	PTR FTN()void  size(2) Largest target is 0

    CCP1_COMPARE_Init@ccp_obj.CCP1_Interrupt_Hundeler	PTR FTN()void  size(2) Largest target is 0
		 -> NULL(NULL[0]), 

    CCP1_CAPTURE_Deinit@ccp_obj.CCP2_Interrupt_Hundeler	PTR FTN()void  size(2) Largest target is 0

    CCP1_CAPTURE_Deinit@ccp_obj.CCP1_Interrupt_Hundeler	PTR FTN()void  size(2) Largest target is 0
		 -> NULL(NULL[0]), 

    CCP2_Interrupt_Hundeler	PTR FTN()void  size(2) Largest target is 1
		 -> ccp2_obj.CCP2_Interrupt_Hundeler(BANK0[2]), ccp1_obj.CCP2_Interrupt_Hundeler(BANK0[2]), NULL(), 

    CCP1_Interrupt_Hundeler	PTR FTN()void  size(2) Largest target is 1
		 -> NULL(), NULL(NULL[0]), 

    CCP1_CAPTURE_Init@ccp_obj.CCP2_Interrupt_Hundeler	PTR FTN()void  size(2) Largest target is 0

    CCP1_CAPTURE_Init@ccp_obj.CCP1_Interrupt_Hundeler	PTR FTN()void  size(2) Largest target is 0
		 -> NULL(NULL[0]), 

    ccp2_obj.CCP2_Interrupt_Hundeler	PTR FTN()void  size(2) Largest target is 0

    ccp2_obj.CCP1_Interrupt_Hundeler	PTR FTN()void  size(2) Largest target is 0
		 -> NULL(NULL[0]), 

    S2681$CCP2_Interrupt_Hundeler	PTR FTN()void  size(2) Largest target is 0

    ccp1_obj.CCP2_Interrupt_Hundeler	PTR FTN()void  size(2) Largest target is 0

    S2681$CCP1_Interrupt_Hundeler	PTR FTN()void  size(2) Largest target is 0
		 -> NULL(NULL[0]), 

    ccp1_obj.CCP1_Interrupt_Hundeler	PTR FTN()void  size(2) Largest target is 0
		 -> NULL(NULL[0]), 

    timer2.TMR2_Interrupt_Hundeler	PTR FTN()void  size(2) Largest target is 0

    Timer3_Mode_Select@timer3.TMR3_Interrupt_Hundeler	PTR FTN()void  size(2) Largest target is 0

    TMR3_Interrupt_Hundeler	PTR FTN()void  size(2) Largest target is 1
		 -> NULL(), 

    S2467$TMR3_Interrupt_Hundeler	PTR FTN()void  size(2) Largest target is 0

    Timer3_Init@timer3.TMR3_Interrupt_Hundeler	PTR FTN()void  size(2) Largest target is 0

    TMR2_Interrupt_Hundeler	PTR FTN()void  size(2) Largest target is 1
		 -> timer2.TMR2_Interrupt_Hundeler(BANK0[2]), NULL(), 

    S2336$TMR2_Interrupt_Hundeler	PTR FTN()void  size(2) Largest target is 0

    Timer2_Init@timer2.TMR2_Interrupt_Hundeler	PTR FTN()void  size(2) Largest target is 0

    Timer2_Init@timer2	PTR const struct . size(2) Largest target is 5
		 -> timer2(BANK0[5]), 

    Timer1_Mode_Select@timer1.TMR1_Interrupt_Hundeler	PTR FTN()void  size(2) Largest target is 0

    TMR1_Interrupt_Hundeler	PTR FTN()void  size(2) Largest target is 1
		 -> NULL(), 

    S2147$TMR1_Interrupt_Hundeler	PTR FTN()void  size(2) Largest target is 0

    Timer1_Init@timer1.TMR1_Interrupt_Hundeler	PTR FTN()void  size(2) Largest target is 0

    Timer0_Register_Size@timer1.TMR0_Interrupt_Hundeler	PTR FTN()void  size(2) Largest target is 0

    Timer0_Mode_Select@timer1.TMR0_Interrupt_Hundeler	PTR FTN()void  size(2) Largest target is 0

    Timer0_Prescaler_Config@timer1.TMR0_Interrupt_Hundeler	PTR FTN()void  size(2) Largest target is 0

    TMR0_Interrupt_Hundeler	PTR FTN()void  size(2) Largest target is 1
		 -> NULL(), 

    S1977$TMR0_Interrupt_Hundeler	PTR FTN()void  size(2) Largest target is 0

    Timer0_Init@timer1.TMR0_Interrupt_Hundeler	PTR FTN()void  size(2) Largest target is 0

    Interrupt_INTx_SetHandular@int_obj.Ext_Intterrupt	PTR FTN()void  size(2) Largest target is 0

    INT2_Interrupt_Handular	PTR FTN()void  size(2) Largest target is 1
		 -> NULL(), 

    INT1_Interrupt_Handular	PTR FTN()void  size(2) Largest target is 1
		 -> NULL(), 

    INT0_Interrupt_Handular	PTR FTN()void  size(2) Largest target is 1
		 -> NULL(), 

    Interrupt_INTx_Clear_Flag@int_obj.Ext_Intterrupt	PTR FTN()void  size(2) Largest target is 0

    Interrupt_INTx_Pin_Init@int_obj.Ext_Intterrupt	PTR FTN()void  size(2) Largest target is 0

    Interrupt_INTx_Edge_Init@int_obj.Ext_Intterrupt	PTR FTN()void  size(2) Largest target is 0

    Interrupt_INTx_Disable@int_obj.Ext_Intterrupt	PTR FTN()void  size(2) Largest target is 0

    S1337$Ext_Intterrupt	PTR FTN()void  size(2) Largest target is 0

    Interrupt_INTx_Enable@int_obj.Ext_Intterrupt	PTR FTN()void  size(2) Largest target is 0

    RB7_Interrupt_Handular_LOW	PTR FTN()void  size(2) Largest target is 1
		 -> NULL(), 

    RB7_Interrupt_Handular_HIGH	PTR FTN()void  size(2) Largest target is 1
		 -> NULL(), 

    RB6_Interrupt_Handular_LOW	PTR FTN()void  size(2) Largest target is 1
		 -> NULL(), 

    RB6_Interrupt_Handular_HIGH	PTR FTN()void  size(2) Largest target is 1
		 -> NULL(), 

    RB5_Interrupt_Handular_LOW	PTR FTN()void  size(2) Largest target is 1
		 -> NULL(), 

    RB5_Interrupt_Handular_HIGH	PTR FTN()void  size(2) Largest target is 1
		 -> NULL(), 

    RB4_Interrupt_Handular_LOW	PTR FTN()void  size(2) Largest target is 1
		 -> NULL(), 

    RB4_Interrupt_Handular_HIGH	PTR FTN()void  size(2) Largest target is 1
		 -> NULL(), 

    S1375$Ext_Intterrupt_LOW	PTR FTN()void  size(2) Largest target is 0

    Interrupt_RBx_Initialization@int_obj.Ext_Intterrupt_LOW	PTR FTN()void  size(2) Largest target is 0

    S1375$Ext_Intterrupt_HIGH	PTR FTN()void  size(2) Largest target is 0

    Interrupt_RBx_Initialization@int_obj.Ext_Intterrupt_HIGH	PTR FTN()void  size(2) Largest target is 0

    gpio_pin_intialize@pin_config	PTR const struct . size(2) Largest target is 14
		 -> ccp2_obj(BANK0[14]), ccp1_obj(BANK0[14]), lcd_1.lcd_data(BANK0[4]), lcd_1(BANK0[6]), 
		 -> Relay_Initialize@pin_obj(COMRAM[1]), led_initialize@pin_obj(COMRAM[1]), 

    gpio_pin_write_logic@pin_config	PTR const struct . size(2) Largest target is 14
		 -> lcd_4_bit_send_command@lcd.lcd_data(COMRAM[8]), lcd_4_bit_send_char_data@lcd.lcd_data(COMRAM[8]), lcd_4_bit_send_data_position@lcd.lcd_data(COMRAM[8]), lcd_4_bit_send_string@lcd.lcd_data(COMRAM[8]), 
		 -> lcd_4_bit_send_string_position@lcd.lcd_data(COMRAM[8]), lcd_1.lcd_data(BANK0[8]), ccp2_obj(BANK0[14]), ccp1_obj(BANK0[14]), 
		 -> lcd_1.lcd_data(BANK0[4]), lcd_1(BANK0[6]), Relay_Turn_OFF@pin_obj(COMRAM[1]), Relay_Turn_ON@pin_obj(COMRAM[1]), 
		 -> Relay_Initialize@pin_obj(COMRAM[1]), led_turn_off@pin_obj(COMRAM[1]), led_turn_on@pin_obj(COMRAM[1]), led_initialize@pin_obj(COMRAM[1]), 
		 -> lcd_8_bit_send_command@lcd(COMRAM[2]), lcd_4_bit_send_string_position@lcd(COMRAM[2]), lcd_4_bit_send_string@lcd(COMRAM[2]), lcd_4_bit_send_data_position@lcd(COMRAM[2]), 
		 -> lcd_4_bit_send_char_data@lcd(COMRAM[2]), lcd_4_bit_send_command@lcd(COMRAM[2]), 

    gpio_pin_direction_intialize@pin_config	PTR const struct . size(2) Largest target is 14
		 -> ccp2_obj(BANK0[14]), ccp1_obj(BANK0[14]), lcd_1.lcd_data(BANK0[4]), lcd_1(BANK0[6]), 
		 -> Relay_Initialize@pin_obj(COMRAM[1]), led_initialize@pin_obj(COMRAM[1]), 

    port_registers	PTR volatile unsigned char [5] size(2) Largest target is 1
		 -> PORTE(BITBIGSFRlllll[1]), PORTD(BITBIGSFRlllll[1]), PORTC(BITBIGSFRlllll[1]), PORTB(BITBIGSFRlllll[1]), 
		 -> PORTA(BITBIGSFRlllll[1]), 

    lat_registers	PTR volatile unsigned char [5] size(2) Largest target is 1
		 -> LATE(BITBIGSFRllllh[1]), LATD(BITBIGSFRllllh[1]), LATC(BITBIGSFRllllh[1]), LATB(BITBIGSFRllllh[1]), 
		 -> LATA(BITBIGSFRlllll[1]), 

    tris_registers	PTR volatile unsigned char [5] size(2) Largest target is 1
		 -> TRISD(ABS[1]), TRISC(ABS[1]), TRISB(ABS[1]), TRISE(ABS[1]), 
		 -> TRISA(BITBIGSFRlllll[1]), 

    select_voltage_reference@_adc_obj.ADC_INTERRUPTHUNDLER	PTR FTN()void  size(2) Largest target is 0

    select_result_format@_adc_obj.ADC_INTERRUPTHUNDLER	PTR FTN()void  size(2) Largest target is 0

    ADC_GetConversion_Result@_adc_obj.ADC_INTERRUPTHUNDLER	PTR FTN()void  size(2) Largest target is 0

    ADC_Interrupt_Handular	PTR FTN()void  size(2) Largest target is 1
		 -> NULL(), 

    S725$ADC_INTERRUPTHUNDLER	PTR FTN()void  size(2) Largest target is 0

    ADC_Init@_adc_obj.ADC_INTERRUPTHUNDLER	PTR FTN()void  size(2) Largest target is 0

    sp__memset	PTR void  size(2) Largest target is 0

    keypad_btn_values	PTR const unsigned char [4][4] size(3) Largest target is 65535
		 -> ROM(CODE[65535]), 


Critical Paths under _main in COMRAM

    _main->_CCP_PWM_Set_Duty
    _CCP_PWM_Set_Duty->___fltol
    _CCP_PWM_Init->___fltol
    _gpio_pin_intialize->_gpio_pin_write_logic
    ___fltol->___fladd
    ___flmul->___fldiv
    ___fldiv->___xxtofl
    ___fladd->___flmul

Critical Paths under _Interrupt_Manager in COMRAM

    _Interrupt_Manager->_RB4_ISR
    _Interrupt_Manager->_RB5_ISR
    _Interrupt_Manager->_RB6_ISR
    _Interrupt_Manager->_RB7_ISR

Critical Paths under _main in BANK0

    None.

Critical Paths under _Interrupt_Manager in BANK0

    None.

Critical Paths under _main in BANK1

    _main->_CCP_PWM_Init

Critical Paths under _Interrupt_Manager in BANK1

    None.

Critical Paths under _main in BANK2

    None.

Critical Paths under _Interrupt_Manager in BANK2

    None.

Critical Paths under _main in BANK3

    None.

Critical Paths under _Interrupt_Manager in BANK3

    None.

Critical Paths under _main in BANK4

    None.

Critical Paths under _Interrupt_Manager in BANK4

    None.

Critical Paths under _main in BANK5

    None.

Critical Paths under _Interrupt_Manager in BANK5

    None.

Critical Paths under _main in BANK6

    None.

Critical Paths under _Interrupt_Manager in BANK6

    None.

Critical Paths under _main in BANK7

    None.

Critical Paths under _Interrupt_Manager in BANK7

    None.

Critical Paths under _main in BANK8

    None.

Critical Paths under _Interrupt_Manager in BANK8

    None.

Critical Paths under _main in BANK9

    None.

Critical Paths under _Interrupt_Manager in BANK9

    None.

Critical Paths under _main in BANK10

    None.

Critical Paths under _Interrupt_Manager in BANK10

    None.

Critical Paths under _main in BANK11

    None.

Critical Paths under _Interrupt_Manager in BANK11

    None.

Critical Paths under _main in BANK12

    None.

Critical Paths under _Interrupt_Manager in BANK12

    None.

Critical Paths under _main in BANK13

    None.

Critical Paths under _Interrupt_Manager in BANK13

    None.

Critical Paths under _main in BANK14

    None.

Critical Paths under _Interrupt_Manager in BANK14

    None.

Critical Paths under _main in BANK15

    None.

Critical Paths under _Interrupt_Manager in BANK15

    None.

Call Graph Tables:

 ---------------------------------------------------------------------------------
 (Depth) Function   	        Calls       Base Space   Used Autos Params    Refs
 ---------------------------------------------------------------------------------
 (0) _main                                                 3     3      0   27186
                                              0 BANK0      2     2      0
                       _CCP_PWM_Init
                   _CCP_PWM_Set_Duty
                      _CCP_PWM_Start
                        _Timer2_Init
 ---------------------------------------------------------------------------------
 (1) _Timer2_Init                                          4     2      2     232
                                              3 COMRAM     4     2      2
 ---------------------------------------------------------------------------------
 (1) _CCP_PWM_Start                                        4     2      2     546
                                              3 COMRAM     4     2      2
 ---------------------------------------------------------------------------------
 (1) _CCP_PWM_Set_Duty                                    12     9      3    7679
                                             93 COMRAM    12     9      3
                            ___fldiv
                            ___flmul
                            ___fltol
                           ___xxtofl
 ---------------------------------------------------------------------------------
 (1) _CCP_PWM_Init                                        13    11      2   18681
                                             93 COMRAM     4     2      2
                                              0 BANK1      9     9      0
                            ___fladd
                            ___fldiv
                            ___flmul
                            ___fltol
                           ___xxtofl
                 _gpio_pin_intialize
 ---------------------------------------------------------------------------------
 (2) _gpio_pin_intialize                                   4     2      2    8393
                                             13 COMRAM     4     2      2
       _gpio_pin_direction_intialize
               _gpio_pin_write_logic
 ---------------------------------------------------------------------------------
 (3) _gpio_pin_write_logic                                10     7      3    5868
                                              3 COMRAM    10     7      3
 ---------------------------------------------------------------------------------
 (3) _gpio_pin_direction_intialize                         9     7      2     707
                                              3 COMRAM     9     7      2
 ---------------------------------------------------------------------------------
 (2) ___xxtofl                                            14    10      4     786
                                              3 COMRAM    14    10      4
 ---------------------------------------------------------------------------------
 (2) ___fltol                                             10     6      4     462
                                             83 COMRAM    10     6      4
                            ___fladd (ARG)
                            ___fldiv (ARG)
                            ___flmul (ARG)
                           ___xxtofl (ARG)
 ---------------------------------------------------------------------------------
 (2) ___flmul                                             25    17      8    2953
                                             42 COMRAM    25    17      8
                            ___fldiv (ARG)
                           ___xxtofl (ARG)
 ---------------------------------------------------------------------------------
 (2) ___fldiv                                             25    17      8    2073
                                             17 COMRAM    25    17      8
                           ___xxtofl (ARG)
 ---------------------------------------------------------------------------------
 (2) ___fladd                                             16     8      8    3292
                                             67 COMRAM    16     8      8
                            ___fldiv (ARG)
                            ___flmul (ARG)
                           ___xxtofl (ARG)
 ---------------------------------------------------------------------------------
 Estimated maximum stack depth 3
 ---------------------------------------------------------------------------------
 (Depth) Function   	        Calls       Base Space   Used Autos Params    Refs
 ---------------------------------------------------------------------------------
 (4) _Interrupt_Manager                                    2     2      0     176
                                              1 COMRAM     2     2      0
                            _ADC_ISR
                           _CCP1_ISR
                           _CCP2_ISR
                           _INT0_ISR
                           _INT1_ISR
                           _INT2_ISR
                            _RB4_ISR
                            _RB5_ISR
                            _RB6_ISR
                            _RB7_ISR
                         _TIMER0_ISR
                         _TIMER1_ISR
                         _TIMER2_ISR
                         _TIMER3_ISR
 ---------------------------------------------------------------------------------
 (5) _TIMER3_ISR                                           0     0      0       0
 ---------------------------------------------------------------------------------
 (5) _TIMER2_ISR                                           0     0      0       0
                                NULL *
 ---------------------------------------------------------------------------------
 (5) _TIMER1_ISR                                           0     0      0       0
 ---------------------------------------------------------------------------------
 (5) _TIMER0_ISR                                           0     0      0       0
 ---------------------------------------------------------------------------------
 (5) _RB7_ISR                                              1     1      0      44
                                              0 COMRAM     1     1      0
 ---------------------------------------------------------------------------------
 (5) _RB6_ISR                                              1     1      0      44
                                              0 COMRAM     1     1      0
 ---------------------------------------------------------------------------------
 (5) _RB5_ISR                                              1     1      0      44
                                              0 COMRAM     1     1      0
 ---------------------------------------------------------------------------------
 (5) _RB4_ISR                                              1     1      0      44
                                              0 COMRAM     1     1      0
 ---------------------------------------------------------------------------------
 (5) _INT2_ISR                                             0     0      0       0
 ---------------------------------------------------------------------------------
 (5) _INT1_ISR                                             0     0      0       0
 ---------------------------------------------------------------------------------
 (5) _INT0_ISR                                             0     0      0       0
 ---------------------------------------------------------------------------------
 (5) _CCP2_ISR                                             0     0      0       0
                                NULL *
 ---------------------------------------------------------------------------------
 (6) NULL(Fake)                                            0     0      0       0
 ---------------------------------------------------------------------------------
 (5) _CCP1_ISR                                             0     0      0       0
 ---------------------------------------------------------------------------------
 (5) _ADC_ISR                                              0     0      0       0
 ---------------------------------------------------------------------------------
 Estimated maximum stack depth 6
 ---------------------------------------------------------------------------------

 Call Graph Graphs:

 _main (ROOT)
   _CCP_PWM_Init
     ___fladd
       ___fldiv (ARG)
         ___xxtofl (ARG)
       ___flmul (ARG)
         ___fldiv (ARG)
         ___xxtofl (ARG)
       ___xxtofl (ARG)
     ___fldiv
     ___flmul
     ___fltol
       ___fladd (ARG)
       ___fldiv (ARG)
       ___flmul (ARG)
       ___xxtofl (ARG)
     ___xxtofl
     _gpio_pin_intialize
       _gpio_pin_direction_intialize
       _gpio_pin_write_logic
   _CCP_PWM_Set_Duty
     ___fldiv
     ___flmul
     ___fltol
     ___xxtofl
   _CCP_PWM_Start
   _Timer2_Init

 _Interrupt_Manager (ROOT)
   _ADC_ISR
   _CCP1_ISR
   _CCP2_ISR
     NULL(Fake) *
     _ccp2_obj.CCP2_Interrupt_Hundeler *
   _INT0_ISR
   _INT1_ISR
   _INT2_ISR
   _RB4_ISR
   _RB5_ISR
   _RB6_ISR
   _RB7_ISR
   _TIMER0_ISR
   _TIMER1_ISR
   _TIMER2_ISR
     NULL(Fake) *
     _timer2.TMR2_Interrupt_Hundeler *
   _TIMER3_ISR

 Address spaces:
Name               Size   Autos  Total    Cost      Usage
BIGRAM             F7F      0       0      49        0.0%
EEDATA             400      0       0       0        0.0%
BITBANK14          100      0       0      33        0.0%
BANK14             100      0       0      34        0.0%
BITBANK13          100      0       0      31        0.0%
BANK13             100      0       0      32        0.0%
BITBANK12          100      0       0      29        0.0%
BANK12             100      0       0      30        0.0%
BITBANK11          100      0       0      27        0.0%
BANK11             100      0       0      28        0.0%
BITBANK10          100      0       0      25        0.0%
BANK10             100      0       0      26        0.0%
BITBANK9           100      0       0      23        0.0%
BANK9              100      0       0      24        0.0%
BITBANK8           100      0       0      21        0.0%
BANK8              100      0       0      22        0.0%
BITBANK7           100      0       0      19        0.0%
BANK7              100      0       0      20        0.0%
BITBANK6           100      0       0      17        0.0%
BANK6              100      0       0      18        0.0%
BITBANK5           100      0       0      15        0.0%
BANK5              100      0       0      16        0.0%
BITBANK4           100      0       0      13        0.0%
BANK4              100      0       0      14        0.0%
BITBANK3           100      0       0      10        0.0%
BANK3              100      0       0      11        0.0%
BITBANK2           100      0       0       8        0.0%
BANK2              100      0       0       9        0.0%
BITBANK1           100      0       0       6        0.0%
BANK1              100      9      39       7       22.3%
BITBANK15           80      0       0      35        0.0%
BANK15              80      0       0      36        0.0%
BITBANK0            80      0       0       4        0.0%
BANK0               80      2      7F       5       99.2%
BITCOMRAM           7E      0       0       0        0.0%
COMRAM              7E     69      7B       1       97.6%
BITBIGSFRhlhlhh     18      0       0      38        0.0%
BITBIGSFRhh          D      0       0      37        0.0%
BITBIGSFRllhhhh      6      0       0      42        0.0%
BITBIGSFRllhhl       6      0       0      43        0.0%
BITBIGSFRlllhh       6      0       0      46        0.0%
BITBIGSFRhlhllh      5      0       0      39        0.0%
BITBIGSFRhlhlll      5      0       0      40        0.0%
BITBIGSFRllhllh      4      0       0      44        0.0%
BITBIGSFRllllh       4      0       0      47        0.0%
BITBIGSFRlllll       4      0       0      48        0.0%
BITBIGSFRllhhhh      1      0       0      41        0.0%
BITBIGSFRllhlll      1      0       0      45        0.0%
BIGSFR               0      0       0     200        0.0%
BITSFR               0      0       0     200        0.0%
SFR                  0      0       0     200        0.0%
STACK                0      0       0       2        0.0%
NULL                 0      0       0       0        0.0%
ABS                  0      0     133      12        0.0%
DATA                 0      0     133       3        0.0%
CODE                 0      0       0       0        0.0%


Microchip Technology PIC18 Macro Assembler V2.41 build 20230208172133 
Symbol Table                                                                                   Mon Dec 04 11:35:59 2023

                          ___fldiv@aexp 002A                            ___fldiv@bexp 0029  
                          ___fldiv@sign 0022      CCP1_Captured_Mode_Read_Value@F3122 0088  
                   ??_Interrupt_Manager 0002                 _TMR2_Interrupt_Hundeler 006A  
                                   l531 28AC                                     l550 29E8  
                                   l571 2C7A                                     _PR2 0FCB  
                       __end_of_ADC_ISR 2E4C                     led_initialize@F3048 0077  
                                   prod 0FF3                    __end_of_CCP_PWM_Init 229C  
                                   tosl 0FFD                                     wreg 0FE8  
                          ___flmul@aexp 0038                            ___flmul@bexp 003D  
                          ___flmul@sign 0037                            ___flmul@temp 0042  
                          ___flmul@prod 003E                         __end_of_RB4_ISR 2E0E  
                       __end_of_RB5_ISR 2DF4                         __end_of_RB6_ISR 2DDA  
                       __end_of_RB7_ISR 2DC0                            ___fltol@exp1 005D  
                                  l1040 2B0E                                    l1042 2B8C  
                                  l1261 20C4                                    l1267 2264  
                                  l1283 2766                                    l1620 2AEE  
                                  l1292 2CE2                                    l1269 229A  
                                  l1286 2768                                    l1295 2CE4  
                                  l1910 1AAE                                    l1905 1C8A  
                                  l1851 11F6                                    l1907 1AEA  
                                  l1860 14C6                                    l1852 11E4  
                                  l1916 1B30                                    l1853 11AA  
                                  l1941 18F0                                    l1918 1BA8  
                                  l1919 1B96                                    l1944 1782  
                                  l1937 158C                                    l1954 18B2  
                                  l1946 17FA                                    l1947 17E8  
                                  l1868 1310                                    l1877 13E0  
                                  l1981 244E                                    l1878 13CE  
                                  l1992 23E6                                    l1985 238A  
                                  l1978 22F2                                    l7301 2960  
                                  l8111 2002                                    l7321 2780  
                                  l8121 2058                                    l8113 2014  
                                  l7411 1034                                    l7403 1008  
                                  l7331 2868                                    l7323 27A2  
                                  l7307 29BC                                    l8123 2076  
                                  l8131 20C4                                    l8115 201E  
                                  l7501 11E2                                    l7421 106E  
                                  l7413 1044                                    l7405 1014  
                                  l7325 27AA                                    l7333 28AA  
                                  l7317 276A                                    l7309 29E6  
                                  l8141 2262                                    l8133 2230  
                                  l8125 2082                                    l8117 2022  
                                  l8109 2002                                    l5821 2B70  
                                  l5813 2AF0                                    l7511 1238  
                                  l7503 1204                                    l7431 109C  
                                  l7423 1074                                    l7415 1054  
                                  l7407 1022                                    l7327 280C  
                                  l7319 276E                                    l8143 227C  
                                  l8135 2248                                    l8127 209A  
                                  l8119 2040                                    l8151 2298  
                                  l5911 2CB2                                    l5903 2C7C  
                                  l5831 2B88                                    l5823 2B72  
                                  l5815 2AF4                                    l7601 14B6  
                                  l7521 1272                                    l7513 1246  
                                  l7505 1214                                    l7441 10D0  
                                  l7433 109E                                    l7425 1086  
                                  l7417 1056                                    l7409 1024  
                                  l8145 2280                                    l8137 224C  
                                  l8129 20B8                                    l8161 2608  
                                  l5913 2CBE                                    l5905 2C80  
                                  l5825 2B74                                    l5833 2B8A  
                                  l5817 2B06                                    l7531 12DE  
                                  l7523 1274                                    l7515 1254  
                                  l7451 110C                                    l7435 10AE  
                                  l7443 10D8                                    l7427 1088  
                                  l7419 105E                                    l7611 190E  
                                  l7291 28B2                                    l7371 2C44  
                                  l8147 2294                                    l8139 2260  
                                  l8163 26D6                                    l8171 2766  
                                  l8155 25EA                                    l5915 2CD6  
                                  l5907 2C92                                    l5827 2B84  
                                  l5819 2B10                                    l7541 1336  
                                  l7533 12E0                                    l7525 127E  
                                  l7517 1260                                    l7509 1228  
                                  l7461 1120                                    l7453 1110  
                                  l7445 10E8                                    l7437 10BE  
                                  l7429 108E                                    l7701 1B4E  
                                  l7613 191E                                    l7621 1948  
                                  l7605 18F2                                    l7293 28C4  
                                  l7373 2C4C                                    l7365 2C10  
                                  l8149 2296                                    l8165 26EE  
                                  l8157 25EE                                    l5917 2CE2  
                                  l5909 2C9A                                    l5829 2B86  
                                  l7551 1364                                    l7535 12F0  
                                  l7519 1264                                    l7527 1284  
                                  l7471 1134                                    l7463 1124  
                                  l7455 1114                                    l7447 10FA  
                                  l7439 10CE                                    l7711 1BB8  
                                  l7703 1B52                                    l7631 1974  
                                  l7623 1958                                    l7615 192E  
                                  l7607 18FE                                    l7295 28D4  
                                  l7375 2C78                                    l7367 2C10  
                                  l8167 271E                                    l8159 2600  
                                  l7553 1372                                    l7545 134A  
                                  l7561 1390                                    l7529 12AA  
                                  l7537 1300                                    l7473 1138  
                                  l7465 1128                                    l7457 1118  
                                  l7449 1108                                    l7481 1148  
                                  l7721 1C1A                                    l7713 1BC4  
                                  l7705 1B60                                    l7633 1984  
                                  l7641 19AE                                    l7625 195E  
                                  l7617 193E                                    l7609 190C  
                                  l7801 1642                                    l7297 28F6  
                                  l7289 28AE                                    l7369 2C22  
                                  l8169 2736                                    l7555 137A  
                                  l7547 1354                                    l7539 1326  
                                  l7563 139E                                    l7491 11B8  
                                  l7483 114C                                    l7475 113C  
                                  l7467 112C                                    l7459 111C  
                                  l7731 1C78                                    l7723 1C30  
                                  l7715 1BD2                                    l7707 1B8E  
                                  l7651 19F0                                    l7643 19BE  
                                  l7635 1994                                    l7627 1964  
                                  l7619 1940                                    l7811 1698  
                                  l7803 1652                                    l7299 28FE  
                                  l7573 13F0                                    l7581 1446  
                                  l7565 13A2                                    l7557 137E  
                                  l7549 1362                                    l7493 11C4  
                                  l7485 1176                                    l7477 1140  
                                  l7469 1130                                    l7733 1C7E  
                                  l7725 1C4A                                    l7717 1BFC  
                                  l7645 19D4                                    l7637 19A4  
                                  l7629 1972                                    l7821 173C  
                                  l7813 16B4                                    l7805 165E  
                                  l8701 24FC                                    l7591 1498  
                                  l7583 1456                                    l7575 13FC  
                                  l7567 13B0                                    l7559 138E  
                                  l7495 11C8                                    l7487 1192  
                                  l7479 1144                                    l7735 1C80  
                                  l7727 1C66                                    l7719 1C00  
                                  l7671 1A72                                    l7663 1A28  
                                  l7647 19E4                                    l7655 1A04  
                                  l7639 19A6                                    l7831 1792  
                                  l7823 174A                                    l7815 16C0  
                                  l7807 166E                                    l7751 14F4  
                                  l7743 14C8                                    l7911 2ACE  
                                  l8711 254E                                    l8703 2508  
                                  l7593 149E                                    l7585 1466  
                                  l7577 140A                                    l7569 13C6  
                                  l7497 11D6                                    l7489 11A2  
                                  l7729 1C6A                                    l7681 1AB8  
                                  l7673 1A7A                                    l7665 1A42  
                                  l7657 1A14                                    l7649 19EC  
                                  l7833 17A0                                    l7825 1768  
                                  l7817 16DC                                    l7809 1688  
                                  l7761 1530                                    l7753 1504  
                                  l7745 14D4                                    l7913 2ADE  
                                  l7905 2AA2                                    l7921 22BC  
                                  l8721 25A0                                    l8713 255A  
                                  l8705 2518                                    l7595 14A0  
                                  l7587 1486                                    l7579 1444  
                                  l7499 11D8                                    l7691 1B10  
                                  l7683 1AD6                                    l7675 1A8A  
                                  l7667 1A52                                    l7659 1A14  
                                  l7843 180A                                    l7851 1852  
                                  l7835 17A4                                    l7827 1772  
                                  l7819 1706                                    l7771 1566  
                                  l7763 1536                                    l7755 1514  
                                  l7747 14E2                                    l7907 2AAE  
                                  l7931 2334                                    l7923 2302  
                                  l8723 25AC                                    l8715 256A  
                                  l8707 2524                                    l7597 14A6  
                                  l7589 148A                                    l7693 1B16  
                                  l7685 1AD8                                    l7677 1A9E  
                                  l7669 1A62                                    l7861 18C6  
                                  l7853 186C                                    l7845 1816  
                                  l7837 17B2                                    l7829 1780  
                                  l7773 1576                                    l7765 1544  
                                  l7757 151A                                    l7749 14E4  
                                  l7909 2ABE                                    l7941 23BC  
                                  l7933 2340                                    l7925 2318  
                                  l7917 229E                                    l8725 25BC  
                                  l8717 2576                                    l8709 253E  
                                  l8661 245E                                    l7599 14B4  
                                  l7695 1B20                                    l7687 1AE8  
                                  l7679 1AAC                                    l7863 18D4  
                                  l7855 1880                                    l7847 1824  
                                  l7839 17E0                                    l7791 15F8  
                                  l7783 15C0                                    l7775 157C  
                                  l7767 1546                                    l7759 152A  
                                  l7951 23FA                                    l7943 23C8  
                                  l7935 2372                                    l7919 22AE  
                                  l8727 25C8                                    l8719 2590  
                                  l8671 247C                                    l8663 2466  
                                  l8655 2450                                    l7697 1B2E  
                                  l7689 1AFA                                    l7865 18D6  
                                  l7857 189A                                    l7849 184E  
                                  l7793 1610                                    l7785 15CC  
                                  l7777 159C                                    l7769 1556  
                                  l7881 2A3E                                    l7873 29EA  
                                  l7953 241E                                    l7945 23D6  
                                  l7937 2374                                    l7929 232C  
                                  l8681 24A6                                    l8673 2484  
                                  l8665 246E                                    l8657 2450  
                                  l7699 1B40                                    l7859 18B6  
                                  l7867 18DC                                    l7795 161C  
                                  l7787 15D6                                    l7779 15AC  
                                  l7883 2A40                                    l7875 2A00  
                                  l7955 242E                                    l7947 23F4  
                                  l7939 2380                                    l8691 24C4  
                                  l8683 24AE                                    l8675 248C  
                                  l8667 2476                                    l8659 245A  
                                  l7869 18E0                                    l7797 1628  
                                  l7789 15EC                                    l7885 2A50  
                                  l7957 243C                                    l7949 23F6  
                                  l8693 24CC                                    l8685 24B6  
                                  l8677 2498                                    l8669 2478  
                                  l7799 1636                                    l7895 2A7A  
                                  l7887 2A54                                    l7879 2A14  
                                  l7959 243E                                    l8695 24D4  
                                  l8687 24BE                                    l8679 24A2  
                                  l7897 2A84                                    l7889 2A62  
                                  l8697 24E0                                    l8689 24C0  
                                  l7899 2A8E                                    l8699 24EC  
                                  l8877 29D0                                    l8879 2894  
                                  STR_1 1001                                    STR_2 1004  
                                  _LATA 0F89                                    _LATB 0F8A  
                                  _LATC 0F8B                                    _LATD 0F8C  
                                  _LATE 0F8D                                    u5300 2CD6  
                                  u5301 2CD2                                    u5160 2B06  
                                  u5161 2B02                                    u8000 189A  
                                  u7120 2780                                    u7104 291E  
                                  u5280 2C92                                    u8001 1896  
                                  u7121 277C                                    u7105 291A  
                                  u5281 2C8E                                    u7210 1022  
                                  u8010 18D4                                    u7130 27A2  
                                  u7114 2980                                    u5290 2CB2  
                                  u7211 101E                                    u8011 18D0  
                                  u7131 279E                                    u7115 297C  
                                  u5291 2CAE                                    u7300 1176  
                                  u7220 1034                                    u8020 2A00  
                                  u8100 22BC                                    u7301 1172  
                                  u7221 1030                                    u8021 29FC  
                                  u8101 22B8                                    u7310 118E  
                                  u7230 1044                                    u8030 2A34  
                                  u8110 2318                                    u7070 28C4  
                                  u7311 1188                                    u7231 1040  
                                  u8111 2314                                    u7071 28C0  
                                  u7400 1272                                    u7320 1190  
                                  u7240 1086                                    u8040 2A62  
                                  u8120 236E                                    u7160 2880  
                                  u7144 27CA                                    u7080 28D4  
                                  u7401 126E                                    u7241 1082  
                                  u8041 2A5E                                    u8121 236A  
                                  u7161 287A                                    u7145 27C6  
                                  u7081 28D0                                    u7410 12AA  
                                  u7330 11B8                                    u7250 109C  
                                  u8050 2A76                                    u8130 23B8  
                                  u7170 2882                                    u7154 282C  
                                  u7090 28F6                                    u7411 12A6  
                                  u7331 11B4                                    u7251 1098  
                                  u8051 2A72                                    u8035 2A2A  
                                  u8131 23B4                                    u7155 2828  
                                  u7091 28F2                                    u7500 13C6  
                                  u7420 12F0                                    u7340 11D6  
                                  u7260 10AE                                    u8060 2A9E  
                                  u8140 23D6                                    u7180 2C22  
                                  u7501 13C2                                    u7421 12EC  
                                  u7341 11D2                                    u7261 10AA  
                                  u8061 2A9A                                    u8141 23D2  
                                  u7181 2C1E                                    u7510 13DC  
                                  u7430 1326                                    u7350 11F6  
                                  u7270 10BE                                    u8070 2ABE  
                                  u8150 23E6                                    u7190 2C44  
                                  u7511 13D8                                    u7431 1322  
                                  u7351 11F2                                    u7271 10BA  
                                  u8071 2ABA                                    u8151 23E2  
                                  u7191 2C40                                    u7520 13F0  
                                  u7440 1336                                    u7360 1204  
                                  u7280 10FA                                    u7600 190C  
                                  u8080 2ACE                                    u8160 23F4  
                                  u8320 2014                                    u8400 2600  
                                  u7521 13EC                                    u7441 1332  
                                  u7361 1200                                    u7281 10F6  
                                  u7601 1908                                    u8081 2ACA  
                                  u8161 23F0                                    u8321 2010  
                                  u8401 25FC                                    u7530 140A  
                                  u7450 1362                                    u7370 1214  
                                  u7290 1108                                    u7610 191E  
                                  u8170 242E                                    u8090 22AE  
                                  u8330 2040                                    u8410 26EE  
                                  u7531 1406                                    u7451 135E  
                                  u7371 1210                                    u7291 1104  
                                  u7611 191A                                    u8171 242A  
                                  u8091 22AA                                    u8331 203C  
                                  u8411 26EA                                    u7540 1444  
                                  u7460 1372                                    u7380 1246  
                                  u7700 1AD6                                    u7620 192E  
                                  u8180 243C                                    u8340 2058  
                                  u8420 2736                                    u7541 1440  
                                  u7461 136E                                    u7381 1242  
                                  u7701 1AD2                                    u7621 192A  
                                  u8181 2438                                    u8341 2054  
                                  u8421 2732                                    u7550 1456  
                                  u7470 138E                                    u7390 1254  
                                  u7710 1AFA                                    u7630 1972  
                                  u8350 2076                                    u7551 1452  
                                  u7471 138A                                    u7391 1250  
                                  u7711 1AF6                                    u7631 196E  
                                  u8351 2072                                    u7560 1466  
                                  u7480 139E                                    u7800 1C1A  
                                  u7720 1B10                                    u7640 1984  
                                  u8360 209A                                    u7561 1462  
                                  u7481 139A                                    u7801 1C16  
                                  u7721 1B0C                                    u7641 1980  
                                  u8361 2096                                    u7570 1486  
                                  u7490 13B0                                    u7810 1C4A  
                                  u7730 1B2E                                    u7650 1994  
                                  u8370 20B8                                    u7571 1482  
                                  u7491 13AC                                    u7811 1C46  
                                  u7731 1B2A                                    u7651 1990  
                                  u8371 20B4                                    u7580 1498  
                                  u7820 1C78                                    u7740 1B4E  
                                  u7660 19D4                                    u7900 15AC  
                                  u8380 2248                                    u7581 1494  
                                  u7821 1C74                                    u7741 1B4A  
                                  u7661 19D0                                    u7901 15A8  
                                  u8381 2244                                    u7590 14B4  
                                  u7750 1B60                                    u7670 1A14  
                                  u7910 1726                                    u7830 14E2  
                                  u8390 227C                                    u7591 14B0  
                                  u7751 1B5C                                    u7671 1A10  
                                  u7831 14DE                                    u8391 2278  
                                  u7760 1B8E                                    u7680 1A8A  
                                  u7920 1780                                    u7840 14F4  
                                  u7761 1B8A                                    u7681 1A86  
                                  u7921 177C                                    u7841 14F0  
                                  u7770 1BA4                                    u7690 1AAC  
                                  u7930 17A0                                    u7850 1504  
                                  u7771 1BA0                                    u7691 1AA8  
                                  u7931 179C                                    u7915 171C  
                                  u7851 1500                                    u7780 1BB8  
                                  u7940 17B2                                    u7860 1544  
                                  u7781 1BB4                                    u7941 17AE  
                                  u7861 1540                                    u7790 1BD2  
                                  u7950 17E0                                    u7870 1556  
                                  u7791 1BCE                                    u7951 17DC  
                                  u7871 1552                                    u7960 17F6  
                                  u7880 1566                                    u7961 17F2  
                                  u7881 1562                                    u7970 180A  
                                  u7890 159C                                    u7971 1806  
                                  u7891 1598                                    u7980 1824  
                                  u7981 1820                                    u7990 186C  
                                  u7991 1868                                    u8957 2530  
                                  u8967 2582                                    u8977 25D4  
                                  _TMR2 0FCC               __end_of_Interrupt_Manager 2002  
                                  _main 2450                        __end_of_CCP1_ISR 2E48  
                      __end_of_CCP2_ISR 2D78                                    fsr2h 0FDA  
                                  indf2 0FDF                                    fsr1l 0FE1  
                                  fsr2l 0FD9                                    btemp 007C  
                                  prodh 0FF4                                    prodl 0FF3  
                                  start 000E                         ___fldiv@new_exp 0023  
                 __end_of_CCP_PWM_Start 2CE6                   _CCP_PWM_Set_Duty$4188 0063  
                          ___param_bank 0000                    _gpio_pin_write_logic 28AE  
                  CCP_PWM_Start@ccp_obj 0004                             ?_TIMER0_ISR 0001  
                           ?_TIMER1_ISR 0001                             ?_TIMER2_ISR 0001  
                           ?_TIMER3_ISR 0001                        __end_of_INT0_ISR 2E44  
                      __end_of_INT1_ISR 2E40                        __end_of_INT2_ISR 2E3C  
                         ___fltol@sign1 005C                         __end_of___fladd 14C8  
                                 ?_main 0001                         __end_of___fldiv 1C8C  
                                 _EEADR 0FA9                         __end_of___flmul 18F2  
                       __end_of___fltol 2AF0                                   i2l800 2DD8  
                                 i2l458 2E4A                                   i2l811 2DBE  
                                 i2l902 1FF6                                   i2l762 2E3E  
                                 i2l757 2E42                                   i2l767 2E3A  
                                 i2l871 1CF6                                   i2l944 2E32  
                                 i2l881 1E4A                                   i2l873 1D3A  
                                 i2l778 2E0C                                   i2l891 1F56  
                                 i2l883 1E8E                                   i2l875 1D7E  
                                 i2l867 1CB6                                   i2l789 2DF2  
                                 i2l893 1F76                                   i2l885 1ED2  
                                 i2l877 1DC2                                   i2l869 1CD6  
                                 i2l895 1F96                                   i2l887 1F16  
                                 i2l879 1E06                                   i2l897 1FB6  
                                 i2l889 1F36                                   i2l899 1FD6  
                                 _TMR0H 0FD7                                   _TMR1H 0FCF  
                                 _TMR0L 0FD6                                   _TMR1L 0FCE  
                                 _TMR3H 0FB3                                   _TMR3L 0FB2  
                                 _PORTA 0F80                                   _PORTB 0F81  
                                 _PORTC 0F82                                   _PORTD 0F83  
                                 _PORTE 0F84                                   _TRISA 0F92  
                                 _TRISB 0F93                                   _TRISC 0F94  
                                 _TRISD 0F95                                   _TRISE 0F96  
                   CCP_PWM_Init@ccp_obj 005E                                   _lcd_1 00F7  
                                 _lcd_2 00ED                                   pclath 0FFA  
                                 pclatu 0FFB                                   tablat 0FF5  
                                 ttemp5 007D                                   ttemp6 0080  
                                 ttemp7 0084                                   status 0FD8  
                                 wtemp8 007D                         __initialization 2B8E  
                          __end_of_main 25EA                   ?_gpio_pin_write_logic 0004  
                             ??_ADC_ISR 0001                           _lat_registers 00D9  
                                ??_main 00FD                           __activetblptr 0003  
                      led_turn_on@F3053 0076                               ??_RB4_ISR 0001  
                             ??_RB5_ISR 0001                               ??_RB6_ISR 0001  
                             ??_RB7_ISR 0001                                  _ADRESH 0FC4  
                                _EEADRH 0FAA                                  _ADRESL 0FC3  
                                _EEDATA 0FA8                                  _CCPR1H 0FBF  
                                _CCPR1L 0FBE                                  _CCPR2L 0FBB  
                                _EECON2 0FA7                     Relay_Turn_OFF@F3052 0071  
                                i2l1023 2E26                                  i2l1118 2E1A  
                                i2l1063 2D16                                  i2l1312 2D76  
                                i2l1308 2E46                                  i2l3023 2CE6  
                                i2l3025 2CEC                                  i2l3027 2CFE  
                                i2l5711 2E3C                                  i2l5705 2E40  
                                i2l5803 2E44                                  i2l5811 2D5E  
                                i2l5731 2E0C                                  i2l5723 2DF6  
                                i2l5717 2E38                                  i2l5725 2DF8  
                                i2l5807 2D48                                  i2l5751 2DC2  
                                i2l5665 2E48                                  i2l5809 2D4A  
                                i2l5745 2DF2                                  i2l5737 2DDC  
                                i2l5753 2DC4                                  i2l6801 1DDE  
                                i2l5739 2DDE                                  i2l6811 1E22  
                                i2l6803 1DEC                                  i2l5773 2DBE  
                                i2l5765 2DA8                                  i2l5781 2E2A  
                                i2l6821 1E66                                  i2l6813 1E30  
                                i2l6805 1DFC                                  i2l5759 2DD8  
                                i2l5767 2DAA                                  i2l5783 2E2E  
                                i2l5791 2E22                                  i2l6831 1EAA  
                                i2l6823 1E74                                  i2l6815 1E40  
                                i2l6807 1E00                                  i2l6841 1EEE  
                                i2l6833 1EB8                                  i2l6825 1E84  
                                i2l6817 1E44                                  i2l6809 1E14  
                                i2l6761 1CC4                                  i2l5779 2E28  
                                i2l5787 2E1C                                  i2l5795 2E0E  
                                i2l6851 1F32                                  i2l6843 1EFC  
                                i2l6835 1EC8                                  i2l6827 1E88  
                                i2l6819 1E58                                  i2l6771 1D12  
                                i2l6763 1CD2                                  i2l6755 1C96  
                                i2l5789 2E1E                                  i2l5797 2E10  
                                i2l6861 1F84                                  i2l6853 1F44  
                                i2l6845 1F0C                                  i2l6837 1ECC  
                                i2l6829 1E9C                                  i2l6781 1D56  
                                i2l6773 1D20                                  i2l6765 1CE4  
                                i2l6757 1CA4                                  i2l5799 2E16  
                                i2l6871 1FD2                                  i2l6863 1F92  
                                i2l6855 1F52                                  i2l6847 1F10  
                                i2l6839 1EE0                                  i2l6791 1D9A  
                                i2l6783 1D64                                  i2l6775 1D30  
                                i2l6767 1CF2                                  i2l6759 1CB2  
                                i2l6873 1FE4                                  i2l6865 1FA4  
                                i2l6857 1F64                                  i2l6849 1F24  
                                i2l6793 1DA8                                  i2l6785 1D74  
                                i2l6777 1D34                                  i2l6769 1D04  
                                i2l6875 1FF2                                  i2l6867 1FB2  
                                i2l6859 1F72                                  i2l6795 1DB8  
                                i2l6787 1D78                                  i2l6779 1D48  
                                i2l6869 1FC4                                  i2l6797 1DBC  
                                i2l6789 1D8C                                  i2l6799 1DD0  
                      __end_of___xxtofl 2450                           ??_Timer2_Init 0006  
           _RB6_Interrupt_Handular_HIGH 009C                               ??___fladd 004C  
                             ??___fldiv 001A                               ??___flmul 0033  
                             ??___fltol 0058                                  clear_0 2BF4  
                                clear_1 2C00                                  _timer2 00CA  
                                isa$std 0001                               ?_CCP1_ISR 0001  
                          __pdataCOMRAM 0078                               ?_CCP2_ISR 0001  
                          __mediumconst 0000                                  tblptrh 0FF7  
                                tblptrl 0FF6                                  tblptru 0FF8  
                      _timer2_preloaded 0070                       Timer2_Init@timer2 0004  
               CCP_PWM_Set_Duty@ccp_obj 005E                            ___xxtofl@arg 000E  
                          ___xxtofl@exp 000D                            ___xxtofl@val 0004  
                            __accesstop 0080                 __end_of__initialization 2C06  
                             ?_INT0_ISR 0001                               ?_INT1_ISR 0001  
                      _CCP_PWM_Set_Duty 25EA                               ?_INT2_ISR 0001  
                         ___rparam_used 0001                              ___fltol@f1 0054  
                          _CCP_PWM_Init 2002                  ??_gpio_pin_write_logic 0007  
                        __pcstackCOMRAM 0001                            __pidataBANK0 2D78  
                          __pidataBANK1 2D18                           RB4_ISR@source 0001  
                   __end_of_Timer2_Init 2B8E                              ??_CCP1_ISR 0001  
                            ??_CCP2_ISR 0001                 _CCP1_Interrupt_Hundeler 008C  
                         RB5_ISR@source 0001              _RB6_Interrupt_Handular_LOW 009A  
               _INT0_Interrupt_Handular 00AA                              __pbssBANK0 0080  
                            ??_INT0_ISR 0001                              ??_INT1_ISR 0001  
           convert_uint_16_string@F3199 0080                              ??_INT2_ISR 0001  
                       CCP_PWM_Init@ret 0138                     CCP_PWM_Set_Duty@ret 0067  
                 Relay_Initialize@F3042 0073                           RB6_ISR@source 0001  
           CCP_PWM_Set_Duty@l_duty_temp 0068                       led_turn_off@F3058 0075  
                          ??_TIMER0_ISR 0001                            ??_TIMER1_ISR 0001  
                          ??_TIMER2_ISR 0001                            ??_TIMER3_ISR 0001  
                               _ADC_ISR 2E48                         led_toggle@F3063 0074  
               _TMR1_Interrupt_Hundeler 0092                                 _RB4_ISR 2DF4  
                               _RB5_ISR 2DDA                                 _RB6_ISR 2DC0  
                               _RB7_ISR 2DA6                               ?___xxtofl 0004  
                         RB7_ISR@source 0001                          _tris_registers 00E3  
                    __end_of_TIMER0_ISR 2E34                      __end_of_TIMER1_ISR 2E28  
                    __end_of_TIMER2_ISR 2D18                      __end_of_TIMER3_ISR 2E1C  
                               __Hparam 0000                             _Timer2_Init 2AF0  
                               __Lparam 0000                                 ___fladd 1008  
                               ___fldiv 18F2                                 ___flmul 14C8  
                               ___fltol 29EA                            __psmallconst 1000  
            __end_of_gpio_pin_intialize 2C7C                                 __pcinit 2B8E  
                               __ramtop 1000                                 __ptext0 2450  
                               __ptext1 2AF0                                 __ptext2 2C7C  
                               __ptext3 25EA                                 __ptext4 2002  
                               __ptext5 2C10                                 __ptext6 28AE  
                               __ptext7 276A                                 __ptext8 229C  
                               __ptext9 29EA                               _T0CONbits 0FD5  
                             _T1CONbits 0FCD                               _T2CONbits 0FCA  
                            ??___xxtofl 0008                               _T3CONbits 0FB1  
                        __pintcode_body 1C8C                    end_of_initialization 2C06  
                               int_func 1C8C                       _CCP_PWM_Init$4354 0130  
                     _CCP_PWM_Init$4355 0134                   gpio_pin_intialize@ret 0011  
                               postdec1 0FE5                                 postdec2 0FDD  
                               postinc0 0FEE                                 postinc2 0FDE  
                             _PORTBbits 0F81                __end_of_CCP_PWM_Set_Duty 276A  
                           ___fladd@grs 0053    __end_of_gpio_pin_direction_intialize 28AE  
          _gpio_pin_direction_intialize 276A                           ___xxtofl@sign 000C  
                           ___fldiv@grs 0025                             ___fldiv@rem 001E  
                           ___flmul@grs 0039                             _CCP1CONbits 0FBD  
                           _CCP2CONbits 0FBA             _RB4_Interrupt_Handular_HIGH 00A4  
                         _CCP_PWM_Start 2C7C             _RB7_Interrupt_Handular_HIGH 0098  
                         __pidataCOMRAM 2E34                          _timer0_preload 006E  
                        _timer1_preload 006C                     start_initialization 2B8E  
                        _timer3_preload 008E           ?_gpio_pin_direction_intialize 0004  
                    Relay_Turn_ON@F3047 0072                          ?_CCP_PWM_Start 0004  
                           __pdataBANK0 00CF                             __pdataBANK1 0100  
                              ?_ADC_ISR 0001                  _ADC_Interrupt_Handular 00AC  
                             ___fladd@a 0048                               ___fladd@b 0044  
                             ___fldiv@a 0016                               ___fldiv@b 0012  
                              ?_RB4_ISR 0001                                ?_RB5_ISR 0001  
                              ?_RB6_ISR 0001                                ?_RB7_ISR 0001  
                             ___flmul@a 002F                               ___flmul@b 002B  
                           __pbssCOMRAM 006A                           __pcstackBANK0 00FD  
                         __pcstackBANK1 0130              _RB5_Interrupt_Handular_LOW 009E  
               _INT2_Interrupt_Handular 00A6          gpio_pin_write_logic@pin_config 0004  
       gpio_pin_direction_intialize@ret 000C                    CCP_PWM_Set_Duty@duty 0060  
                          ?_Timer2_Init 0004                               __pintcode 0008  
                              ?___fladd 0044                                ?___fldiv 0012  
                              ?___flmul 002B                                ?___fltol 0054  
             gpio_pin_write_logic@logic 0006                 _TMR0_Interrupt_Hundeler 0094  
               _TMR3_Interrupt_Hundeler 0090                             __smallconst 1000  
                              _CCP1_ISR 2E44                        CCP_PWM_Start@ret 0007  
                              _CCP2_ISR 2D48                      _gpio_pin_intialize 2C10  
        ??_gpio_pin_direction_intialize 0006                                _INT0_ISR 2E40  
                              _INT1_ISR 2E3C                                _INT2_ISR 2E38  
                              _RB4_Flag 007B                                _RB5_Flag 007A  
                              _RB6_Flag 0079                         ??_CCP_PWM_Start 0006  
                              _RB7_Flag 0078                     ?_gpio_pin_intialize 000E  
                              _PIE1bits 0F9D                                _PIE2bits 0FA0  
                              i2u144_40 2CFE                                i2u144_41 2CFA  
                              i2u145_48 2D04                                i2u145_49 2D16  
                              i2u510_40 2E08                                i2u510_41 2E04  
                              i2u511_40 2DEE                                i2u511_41 2DEA  
                              i2u512_40 2DD4                                i2u512_41 2DD0  
                              i2u513_40 2DBA                                i2u513_41 2DB6  
                              _PIR1bits 0F9E                                i2u514_40 2D5E  
                              i2u514_41 2D5A                                _PIR2bits 0FA1  
                              i2u515_48 2D64                                i2u515_49 2D76  
                              i2u630_40 1D04                                i2u630_41 1D00  
                              i2u631_40 1D12                                i2u631_41 1D0E  
                              i2u640_40 1DA8                                i2u632_40 1D20  
                              i2u624_40 1CA4                                i2u640_41 1DA4  
                              i2u632_41 1D1C                                i2u624_41 1CA0  
                              i2u641_40 1DB8                                i2u633_40 1D30  
                              i2u625_40 1CB2                                i2u641_41 1DB4  
                              i2u633_41 1D2C                                i2u625_41 1CAE  
                              i2u650_40 1E58                                i2u642_40 1DD0  
                              i2u634_40 1D48                                i2u626_40 1CC4  
                              i2u650_41 1E54                                i2u642_41 1DCC  
                              i2u634_41 1D44                                i2u626_41 1CC0  
                              i2u651_40 1E66                                i2u643_40 1DDE  
                              i2u635_40 1D56                                i2u627_40 1CD2  
                              i2u651_41 1E62                                i2u643_41 1DDA  
                              i2u635_41 1D52                                i2u627_41 1CCE  
                              i2u660_40 1EFC                                i2u652_40 1E74  
                              i2u644_40 1DEC                                i2u636_40 1D64  
                              i2u628_40 1CE4                                i2u660_41 1EF8  
                              i2u652_41 1E70                                i2u644_41 1DE8  
                              i2u636_41 1D60                                i2u628_41 1CE0  
                              i2u661_40 1F0C                                i2u653_40 1E84  
                              i2u645_40 1DFC                                i2u637_40 1D74  
                              i2u629_40 1CF2                                i2u661_41 1F08  
                              i2u653_41 1E80                                i2u645_41 1DF8  
                              i2u637_41 1D70                                i2u629_41 1CEE  
                              i2u670_40 1FA4                                i2u662_40 1F24  
                              i2u654_40 1E9C                                i2u646_40 1E14  
                              i2u638_40 1D8C                                i2u670_41 1FA0  
                              i2u662_41 1F20                                i2u654_41 1E98  
                              i2u646_41 1E10                                i2u638_41 1D88  
                              i2u671_40 1FB2                                i2u663_40 1F32  
                              i2u655_40 1EAA                                i2u647_40 1E22  
                              i2u639_40 1D9A                                i2u671_41 1FAE  
                              i2u663_41 1F2E                                i2u655_41 1EA6  
                              i2u647_41 1E1E                                i2u639_41 1D96  
                              i2u672_40 1FC4                                i2u664_40 1F44  
                              i2u656_40 1EB8                                i2u648_40 1E30  
                              i2u672_41 1FC0                                i2u664_41 1F40  
                              i2u656_41 1EB4                                i2u648_41 1E2C  
                              i2u673_40 1FD2                                i2u665_40 1F52  
                              i2u657_40 1EC8                                i2u649_40 1E40  
                              i2u673_41 1FCE                                i2u665_41 1F4E  
                              i2u657_41 1EC4                                i2u649_41 1E3C  
                              i2u674_40 1FE4                                i2u666_40 1F64  
                              i2u658_40 1EE0                                i2u674_41 1FE0  
                              i2u666_41 1F60                                i2u658_41 1EDC  
                              i2u675_40 1FF2                                i2u667_40 1F72  
                              i2u659_40 1EEE                                i2u675_41 1FEE  
                              i2u667_41 1F6E                                i2u659_41 1EEA  
                              i2u668_40 1F84                                i2u668_41 1F80  
                              i2u669_40 1F92                                i2u669_41 1F8E  
                     _keypad_btn_values 0100        CCP1_Compare_Mode_Set_Value@F3142 0086  
                            _ADCON0bits 0FC2                              _ADCON1bits 0FC1  
                            _ADCON2bits 0FC0                    ??_gpio_pin_intialize 0010  
                     ?_CCP_PWM_Set_Duty 005E                      ??_CCP_PWM_Set_Duty 0061  
               gpio_pin_write_logic@ret 000D                             _INTCON2bits 0FF1  
                           _INTCON3bits 0FF0                               copy_data0 2BA2  
                             copy_data1 2BC2                               copy_data2 2BE2  
                            _EECON1bits 0FA6                                __Hrparam 0000  
                         ?_CCP_PWM_Init 005E                                __Lrparam 0000  
                              _ccp1_obj 00BC                                _ccp2_obj 00AE  
                              ___xxtofl 229C                                __ptext10 14C8  
                              __ptext11 18F2                                __ptext20 2DDA  
                              __ptext12 1008                                __ptext21 2DF4  
                              __ptext22 2E38                                __ptext14 2E0E  
                              __ptext23 2E3C                                __ptext15 2CE6  
                              __ptext24 2E40                                __ptext16 2E1C  
                              __ptext25 2D48                                __ptext17 2E28  
                              __ptext26 2E44                                __ptext18 2DA6  
                              __ptext27 2E48                                __ptext19 2DC0  
          gpio_pin_intialize@pin_config 000E                          ??_CCP_PWM_Init 0060  
           _RB5_Interrupt_Handular_HIGH 00A0                                isa$xinst 0000  
                              int$flags 007C                              _INTCONbits 0FF2  
                        Timer2_Init@ret 0007            __end_of_gpio_pin_write_logic 29EA  
                              intlevel2 0000  gpio_pin_direction_intialize@pin_config 0004  
                            _TIMER0_ISR 2E28                              _TIMER1_ISR 2E1C  
                            _TIMER2_ISR 2CE6                              _TIMER3_ISR 2E0E  
                        _port_registers 00CF              _RB4_Interrupt_Handular_LOW 00A2  
               _CCP2_Interrupt_Hundeler 008A                           ___fladd@signs 0050  
               _INT1_Interrupt_Handular 00A8              _RB7_Interrupt_Handular_LOW 0096  
                          ___fladd@aexp 0051                            ___fladd@bexp 0052  
                     _Interrupt_Manager 0008                      ?_Interrupt_Manager 0001  
